
C:\PAXPAY~1\myapp\UPDATE~1\UpdateTestD188.elf:     file format elf32-littlearm


Disassembly of section .BinInfo:

01200000 <gstBinInfo>:
 1200000:	01201301 	teqeq	r0, r1, lsl #6
 1200004:	012012e1 	teqeq	r0, r1, ror #5
 1200008:	0000003c 	andeq	r0, r0, ip, lsr r0
 120000c:	01200000 	teqeq	r0, r0
 1200010:	01206a48 	teqeq	r0, r8, asr #20
 1200014:	01200100 	teqeq	r0, r0, lsl #2
 1200018:	012061cc 	smlawteq	r0, ip, r1, r6
 120001c:	01200100 	teqeq	r0, r0, lsl #2
 1200020:	012061cc 	smlawteq	r0, ip, r1, r6
 1200024:	200ff540 	andcs	pc, pc, r0, asr #10
 1200028:	200ffdb4 			; <UNDEFINED> instruction: 0x200ffdb4
 120002c:	200ff540 	andcs	pc, pc, r0, asr #10
 1200030:	200ffdb4 			; <UNDEFINED> instruction: 0x200ffdb4
 1200034:	200ffdb4 			; <UNDEFINED> instruction: 0x200ffdb4
 1200038:	200ffdfc 	strdcs	pc, [pc], -ip
 120003c:	0000011c 	andeq	r0, r0, ip, lsl r1
 1200040:	200ff53c 	andcs	pc, pc, ip, lsr r5	; <UNPREDICTABLE>
 1200044:	00000001 	andeq	r0, r0, r1
	...
 12000f8:	53505041 	cmppl	r0, #65	; 0x41
 12000fc:	4e49425f 	mcrmi	2, 2, r4, cr9, cr15, {2}

Disassembly of section .APPInfo:

01200100 <AppInfo>:
 1200100:	2d534f50 	ldclcs	15, cr4, [r3, #-320]	; 0xfffffec0
 1200104:	706d6953 	rsbvc	r6, sp, r3, asr r9
 1200108:	6520656c 	strvs	r6, [r0, #-1388]!	; 0x56c
 120010c:	706d6178 	rsbvc	r6, sp, r8, ror r1
 1200110:	0000656c 	andeq	r6, r0, ip, ror #10
	...
 1200120:	5f505041 	svcpl	0x00505041
 1200124:	54534554 	ldrbpl	r4, [r3], #-1364	; 0x554
	...
 1200130:	00302e31 	eorseq	r2, r0, r1, lsr lr
	...
 1200140:	65746370 	ldrbvs	r6, [r4, #-880]!	; 0x370
 1200144:	00006d61 	andeq	r6, r0, r1, ror #26
	...
 1200160:	6f6d6564 	svcvs	0x006d6564
 1200164:	6f727020 	svcvs	0x00727020
 1200168:	6d617267 	sfmvs	f7, 2, [r1, #-412]!	; 0xfffffe64
	...

Disassembly of section .text:

01200338 <__aeabi_drsub>:
 1200338:	f081 4100 	eor.w	r1, r1, #2147483648	; 0x80000000
 120033c:	e002      	b.n	1200344 <__adddf3>
 120033e:	bf00      	nop

01200340 <__aeabi_dsub>:
 1200340:	f083 4300 	eor.w	r3, r3, #2147483648	; 0x80000000

01200344 <__adddf3>:
 1200344:	b530      	push	{r4, r5, lr}
 1200346:	ea4f 0441 	mov.w	r4, r1, lsl #1
 120034a:	ea4f 0543 	mov.w	r5, r3, lsl #1
 120034e:	ea94 0f05 	teq	r4, r5
 1200352:	bf08      	it	eq
 1200354:	ea90 0f02 	teqeq	r0, r2
 1200358:	bf1f      	itttt	ne
 120035a:	ea54 0c00 	orrsne.w	ip, r4, r0
 120035e:	ea55 0c02 	orrsne.w	ip, r5, r2
 1200362:	ea7f 5c64 	mvnsne.w	ip, r4, asr #21
 1200366:	ea7f 5c65 	mvnsne.w	ip, r5, asr #21
 120036a:	f000 80e2 	beq.w	1200532 <__adddf3+0x1ee>
 120036e:	ea4f 5454 	mov.w	r4, r4, lsr #21
 1200372:	ebd4 5555 	rsbs	r5, r4, r5, lsr #21
 1200376:	bfb8      	it	lt
 1200378:	426d      	neglt	r5, r5
 120037a:	dd0c      	ble.n	1200396 <__adddf3+0x52>
 120037c:	442c      	add	r4, r5
 120037e:	ea80 0202 	eor.w	r2, r0, r2
 1200382:	ea81 0303 	eor.w	r3, r1, r3
 1200386:	ea82 0000 	eor.w	r0, r2, r0
 120038a:	ea83 0101 	eor.w	r1, r3, r1
 120038e:	ea80 0202 	eor.w	r2, r0, r2
 1200392:	ea81 0303 	eor.w	r3, r1, r3
 1200396:	2d36      	cmp	r5, #54	; 0x36
 1200398:	bf88      	it	hi
 120039a:	bd30      	pophi	{r4, r5, pc}
 120039c:	f011 4f00 	tst.w	r1, #2147483648	; 0x80000000
 12003a0:	ea4f 3101 	mov.w	r1, r1, lsl #12
 12003a4:	f44f 1c80 	mov.w	ip, #1048576	; 0x100000
 12003a8:	ea4c 3111 	orr.w	r1, ip, r1, lsr #12
 12003ac:	d002      	beq.n	12003b4 <__adddf3+0x70>
 12003ae:	4240      	negs	r0, r0
 12003b0:	eb61 0141 	sbc.w	r1, r1, r1, lsl #1
 12003b4:	f013 4f00 	tst.w	r3, #2147483648	; 0x80000000
 12003b8:	ea4f 3303 	mov.w	r3, r3, lsl #12
 12003bc:	ea4c 3313 	orr.w	r3, ip, r3, lsr #12
 12003c0:	d002      	beq.n	12003c8 <__adddf3+0x84>
 12003c2:	4252      	negs	r2, r2
 12003c4:	eb63 0343 	sbc.w	r3, r3, r3, lsl #1
 12003c8:	ea94 0f05 	teq	r4, r5
 12003cc:	f000 80a7 	beq.w	120051e <__adddf3+0x1da>
 12003d0:	f1a4 0401 	sub.w	r4, r4, #1
 12003d4:	f1d5 0e20 	rsbs	lr, r5, #32
 12003d8:	db0d      	blt.n	12003f6 <__adddf3+0xb2>
 12003da:	fa02 fc0e 	lsl.w	ip, r2, lr
 12003de:	fa22 f205 	lsr.w	r2, r2, r5
 12003e2:	1880      	adds	r0, r0, r2
 12003e4:	f141 0100 	adc.w	r1, r1, #0
 12003e8:	fa03 f20e 	lsl.w	r2, r3, lr
 12003ec:	1880      	adds	r0, r0, r2
 12003ee:	fa43 f305 	asr.w	r3, r3, r5
 12003f2:	4159      	adcs	r1, r3
 12003f4:	e00e      	b.n	1200414 <__adddf3+0xd0>
 12003f6:	f1a5 0520 	sub.w	r5, r5, #32
 12003fa:	f10e 0e20 	add.w	lr, lr, #32
 12003fe:	2a01      	cmp	r2, #1
 1200400:	fa03 fc0e 	lsl.w	ip, r3, lr
 1200404:	bf28      	it	cs
 1200406:	f04c 0c02 	orrcs.w	ip, ip, #2
 120040a:	fa43 f305 	asr.w	r3, r3, r5
 120040e:	18c0      	adds	r0, r0, r3
 1200410:	eb51 71e3 	adcs.w	r1, r1, r3, asr #31
 1200414:	f001 4500 	and.w	r5, r1, #2147483648	; 0x80000000
 1200418:	d507      	bpl.n	120042a <__adddf3+0xe6>
 120041a:	f04f 0e00 	mov.w	lr, #0
 120041e:	f1dc 0c00 	rsbs	ip, ip, #0
 1200422:	eb7e 0000 	sbcs.w	r0, lr, r0
 1200426:	eb6e 0101 	sbc.w	r1, lr, r1
 120042a:	f5b1 1f80 	cmp.w	r1, #1048576	; 0x100000
 120042e:	d31b      	bcc.n	1200468 <__adddf3+0x124>
 1200430:	f5b1 1f00 	cmp.w	r1, #2097152	; 0x200000
 1200434:	d30c      	bcc.n	1200450 <__adddf3+0x10c>
 1200436:	0849      	lsrs	r1, r1, #1
 1200438:	ea5f 0030 	movs.w	r0, r0, rrx
 120043c:	ea4f 0c3c 	mov.w	ip, ip, rrx
 1200440:	f104 0401 	add.w	r4, r4, #1
 1200444:	ea4f 5244 	mov.w	r2, r4, lsl #21
 1200448:	f512 0f80 	cmn.w	r2, #4194304	; 0x400000
 120044c:	f080 809a 	bcs.w	1200584 <__adddf3+0x240>
 1200450:	f1bc 4f00 	cmp.w	ip, #2147483648	; 0x80000000
 1200454:	bf08      	it	eq
 1200456:	ea5f 0c50 	movseq.w	ip, r0, lsr #1
 120045a:	f150 0000 	adcs.w	r0, r0, #0
 120045e:	eb41 5104 	adc.w	r1, r1, r4, lsl #20
 1200462:	ea41 0105 	orr.w	r1, r1, r5
 1200466:	bd30      	pop	{r4, r5, pc}
 1200468:	ea5f 0c4c 	movs.w	ip, ip, lsl #1
 120046c:	4140      	adcs	r0, r0
 120046e:	eb41 0101 	adc.w	r1, r1, r1
 1200472:	f411 1f80 	tst.w	r1, #1048576	; 0x100000
 1200476:	f1a4 0401 	sub.w	r4, r4, #1
 120047a:	d1e9      	bne.n	1200450 <__adddf3+0x10c>
 120047c:	f091 0f00 	teq	r1, #0
 1200480:	bf04      	itt	eq
 1200482:	4601      	moveq	r1, r0
 1200484:	2000      	moveq	r0, #0
 1200486:	fab1 f381 	clz	r3, r1
 120048a:	bf08      	it	eq
 120048c:	3320      	addeq	r3, #32
 120048e:	f1a3 030b 	sub.w	r3, r3, #11
 1200492:	f1b3 0220 	subs.w	r2, r3, #32
 1200496:	da0c      	bge.n	12004b2 <__adddf3+0x16e>
 1200498:	320c      	adds	r2, #12
 120049a:	dd08      	ble.n	12004ae <__adddf3+0x16a>
 120049c:	f102 0c14 	add.w	ip, r2, #20
 12004a0:	f1c2 020c 	rsb	r2, r2, #12
 12004a4:	fa01 f00c 	lsl.w	r0, r1, ip
 12004a8:	fa21 f102 	lsr.w	r1, r1, r2
 12004ac:	e00c      	b.n	12004c8 <__adddf3+0x184>
 12004ae:	f102 0214 	add.w	r2, r2, #20
 12004b2:	bfd8      	it	le
 12004b4:	f1c2 0c20 	rsble	ip, r2, #32
 12004b8:	fa01 f102 	lsl.w	r1, r1, r2
 12004bc:	fa20 fc0c 	lsr.w	ip, r0, ip
 12004c0:	bfdc      	itt	le
 12004c2:	ea41 010c 	orrle.w	r1, r1, ip
 12004c6:	4090      	lslle	r0, r2
 12004c8:	1ae4      	subs	r4, r4, r3
 12004ca:	bfa2      	ittt	ge
 12004cc:	eb01 5104 	addge.w	r1, r1, r4, lsl #20
 12004d0:	4329      	orrge	r1, r5
 12004d2:	bd30      	popge	{r4, r5, pc}
 12004d4:	ea6f 0404 	mvn.w	r4, r4
 12004d8:	3c1f      	subs	r4, #31
 12004da:	da1c      	bge.n	1200516 <__adddf3+0x1d2>
 12004dc:	340c      	adds	r4, #12
 12004de:	dc0e      	bgt.n	12004fe <__adddf3+0x1ba>
 12004e0:	f104 0414 	add.w	r4, r4, #20
 12004e4:	f1c4 0220 	rsb	r2, r4, #32
 12004e8:	fa20 f004 	lsr.w	r0, r0, r4
 12004ec:	fa01 f302 	lsl.w	r3, r1, r2
 12004f0:	ea40 0003 	orr.w	r0, r0, r3
 12004f4:	fa21 f304 	lsr.w	r3, r1, r4
 12004f8:	ea45 0103 	orr.w	r1, r5, r3
 12004fc:	bd30      	pop	{r4, r5, pc}
 12004fe:	f1c4 040c 	rsb	r4, r4, #12
 1200502:	f1c4 0220 	rsb	r2, r4, #32
 1200506:	fa20 f002 	lsr.w	r0, r0, r2
 120050a:	fa01 f304 	lsl.w	r3, r1, r4
 120050e:	ea40 0003 	orr.w	r0, r0, r3
 1200512:	4629      	mov	r1, r5
 1200514:	bd30      	pop	{r4, r5, pc}
 1200516:	fa21 f004 	lsr.w	r0, r1, r4
 120051a:	4629      	mov	r1, r5
 120051c:	bd30      	pop	{r4, r5, pc}
 120051e:	f094 0f00 	teq	r4, #0
 1200522:	f483 1380 	eor.w	r3, r3, #1048576	; 0x100000
 1200526:	bf06      	itte	eq
 1200528:	f481 1180 	eoreq.w	r1, r1, #1048576	; 0x100000
 120052c:	3401      	addeq	r4, #1
 120052e:	3d01      	subne	r5, #1
 1200530:	e74e      	b.n	12003d0 <__adddf3+0x8c>
 1200532:	ea7f 5c64 	mvns.w	ip, r4, asr #21
 1200536:	bf18      	it	ne
 1200538:	ea7f 5c65 	mvnsne.w	ip, r5, asr #21
 120053c:	d029      	beq.n	1200592 <__adddf3+0x24e>
 120053e:	ea94 0f05 	teq	r4, r5
 1200542:	bf08      	it	eq
 1200544:	ea90 0f02 	teqeq	r0, r2
 1200548:	d005      	beq.n	1200556 <__adddf3+0x212>
 120054a:	ea54 0c00 	orrs.w	ip, r4, r0
 120054e:	bf04      	itt	eq
 1200550:	4619      	moveq	r1, r3
 1200552:	4610      	moveq	r0, r2
 1200554:	bd30      	pop	{r4, r5, pc}
 1200556:	ea91 0f03 	teq	r1, r3
 120055a:	bf1e      	ittt	ne
 120055c:	2100      	movne	r1, #0
 120055e:	2000      	movne	r0, #0
 1200560:	bd30      	popne	{r4, r5, pc}
 1200562:	ea5f 5c54 	movs.w	ip, r4, lsr #21
 1200566:	d105      	bne.n	1200574 <__adddf3+0x230>
 1200568:	0040      	lsls	r0, r0, #1
 120056a:	4149      	adcs	r1, r1
 120056c:	bf28      	it	cs
 120056e:	f041 4100 	orrcs.w	r1, r1, #2147483648	; 0x80000000
 1200572:	bd30      	pop	{r4, r5, pc}
 1200574:	f514 0480 	adds.w	r4, r4, #4194304	; 0x400000
 1200578:	bf3c      	itt	cc
 120057a:	f501 1180 	addcc.w	r1, r1, #1048576	; 0x100000
 120057e:	bd30      	popcc	{r4, r5, pc}
 1200580:	f001 4500 	and.w	r5, r1, #2147483648	; 0x80000000
 1200584:	f045 41fe 	orr.w	r1, r5, #2130706432	; 0x7f000000
 1200588:	f441 0170 	orr.w	r1, r1, #15728640	; 0xf00000
 120058c:	f04f 0000 	mov.w	r0, #0
 1200590:	bd30      	pop	{r4, r5, pc}
 1200592:	ea7f 5c64 	mvns.w	ip, r4, asr #21
 1200596:	bf1a      	itte	ne
 1200598:	4619      	movne	r1, r3
 120059a:	4610      	movne	r0, r2
 120059c:	ea7f 5c65 	mvnseq.w	ip, r5, asr #21
 12005a0:	bf1c      	itt	ne
 12005a2:	460b      	movne	r3, r1
 12005a4:	4602      	movne	r2, r0
 12005a6:	ea50 3401 	orrs.w	r4, r0, r1, lsl #12
 12005aa:	bf06      	itte	eq
 12005ac:	ea52 3503 	orrseq.w	r5, r2, r3, lsl #12
 12005b0:	ea91 0f03 	teqeq	r1, r3
 12005b4:	f441 2100 	orrne.w	r1, r1, #524288	; 0x80000
 12005b8:	bd30      	pop	{r4, r5, pc}
 12005ba:	bf00      	nop

012005bc <__aeabi_ui2d>:
 12005bc:	f090 0f00 	teq	r0, #0
 12005c0:	bf04      	itt	eq
 12005c2:	2100      	moveq	r1, #0
 12005c4:	4770      	bxeq	lr
 12005c6:	b530      	push	{r4, r5, lr}
 12005c8:	f44f 6480 	mov.w	r4, #1024	; 0x400
 12005cc:	f104 0432 	add.w	r4, r4, #50	; 0x32
 12005d0:	f04f 0500 	mov.w	r5, #0
 12005d4:	f04f 0100 	mov.w	r1, #0
 12005d8:	e750      	b.n	120047c <__adddf3+0x138>
 12005da:	bf00      	nop

012005dc <__aeabi_i2d>:
 12005dc:	f090 0f00 	teq	r0, #0
 12005e0:	bf04      	itt	eq
 12005e2:	2100      	moveq	r1, #0
 12005e4:	4770      	bxeq	lr
 12005e6:	b530      	push	{r4, r5, lr}
 12005e8:	f44f 6480 	mov.w	r4, #1024	; 0x400
 12005ec:	f104 0432 	add.w	r4, r4, #50	; 0x32
 12005f0:	f010 4500 	ands.w	r5, r0, #2147483648	; 0x80000000
 12005f4:	bf48      	it	mi
 12005f6:	4240      	negmi	r0, r0
 12005f8:	f04f 0100 	mov.w	r1, #0
 12005fc:	e73e      	b.n	120047c <__adddf3+0x138>
 12005fe:	bf00      	nop

01200600 <__aeabi_f2d>:
 1200600:	0042      	lsls	r2, r0, #1
 1200602:	ea4f 01e2 	mov.w	r1, r2, asr #3
 1200606:	ea4f 0131 	mov.w	r1, r1, rrx
 120060a:	ea4f 7002 	mov.w	r0, r2, lsl #28
 120060e:	bf1f      	itttt	ne
 1200610:	f012 437f 	andsne.w	r3, r2, #4278190080	; 0xff000000
 1200614:	f093 4f7f 	teqne	r3, #4278190080	; 0xff000000
 1200618:	f081 5160 	eorne.w	r1, r1, #939524096	; 0x38000000
 120061c:	4770      	bxne	lr
 120061e:	f092 0f00 	teq	r2, #0
 1200622:	bf14      	ite	ne
 1200624:	f093 4f7f 	teqne	r3, #4278190080	; 0xff000000
 1200628:	4770      	bxeq	lr
 120062a:	b530      	push	{r4, r5, lr}
 120062c:	f44f 7460 	mov.w	r4, #896	; 0x380
 1200630:	f001 4500 	and.w	r5, r1, #2147483648	; 0x80000000
 1200634:	f021 4100 	bic.w	r1, r1, #2147483648	; 0x80000000
 1200638:	e720      	b.n	120047c <__adddf3+0x138>
 120063a:	bf00      	nop

0120063c <__aeabi_ul2d>:
 120063c:	ea50 0201 	orrs.w	r2, r0, r1
 1200640:	bf08      	it	eq
 1200642:	4770      	bxeq	lr
 1200644:	b530      	push	{r4, r5, lr}
 1200646:	f04f 0500 	mov.w	r5, #0
 120064a:	e00a      	b.n	1200662 <__aeabi_l2d+0x16>

0120064c <__aeabi_l2d>:
 120064c:	ea50 0201 	orrs.w	r2, r0, r1
 1200650:	bf08      	it	eq
 1200652:	4770      	bxeq	lr
 1200654:	b530      	push	{r4, r5, lr}
 1200656:	f011 4500 	ands.w	r5, r1, #2147483648	; 0x80000000
 120065a:	d502      	bpl.n	1200662 <__aeabi_l2d+0x16>
 120065c:	4240      	negs	r0, r0
 120065e:	eb61 0141 	sbc.w	r1, r1, r1, lsl #1
 1200662:	f44f 6480 	mov.w	r4, #1024	; 0x400
 1200666:	f104 0432 	add.w	r4, r4, #50	; 0x32
 120066a:	ea5f 5c91 	movs.w	ip, r1, lsr #22
 120066e:	f43f aedc 	beq.w	120042a <__adddf3+0xe6>
 1200672:	f04f 0203 	mov.w	r2, #3
 1200676:	ea5f 0cdc 	movs.w	ip, ip, lsr #3
 120067a:	bf18      	it	ne
 120067c:	3203      	addne	r2, #3
 120067e:	ea5f 0cdc 	movs.w	ip, ip, lsr #3
 1200682:	bf18      	it	ne
 1200684:	3203      	addne	r2, #3
 1200686:	eb02 02dc 	add.w	r2, r2, ip, lsr #3
 120068a:	f1c2 0320 	rsb	r3, r2, #32
 120068e:	fa00 fc03 	lsl.w	ip, r0, r3
 1200692:	fa20 f002 	lsr.w	r0, r0, r2
 1200696:	fa01 fe03 	lsl.w	lr, r1, r3
 120069a:	ea40 000e 	orr.w	r0, r0, lr
 120069e:	fa21 f102 	lsr.w	r1, r1, r2
 12006a2:	4414      	add	r4, r2
 12006a4:	e6c1      	b.n	120042a <__adddf3+0xe6>
 12006a6:	bf00      	nop

012006a8 <__aeabi_dmul>:
 12006a8:	b570      	push	{r4, r5, r6, lr}
 12006aa:	f04f 0cff 	mov.w	ip, #255	; 0xff
 12006ae:	f44c 6ce0 	orr.w	ip, ip, #1792	; 0x700
 12006b2:	ea1c 5411 	ands.w	r4, ip, r1, lsr #20
 12006b6:	bf1d      	ittte	ne
 12006b8:	ea1c 5513 	andsne.w	r5, ip, r3, lsr #20
 12006bc:	ea94 0f0c 	teqne	r4, ip
 12006c0:	ea95 0f0c 	teqne	r5, ip
 12006c4:	f000 f8de 	bleq	1200884 <__aeabi_dmul+0x1dc>
 12006c8:	442c      	add	r4, r5
 12006ca:	ea81 0603 	eor.w	r6, r1, r3
 12006ce:	ea21 514c 	bic.w	r1, r1, ip, lsl #21
 12006d2:	ea23 534c 	bic.w	r3, r3, ip, lsl #21
 12006d6:	ea50 3501 	orrs.w	r5, r0, r1, lsl #12
 12006da:	bf18      	it	ne
 12006dc:	ea52 3503 	orrsne.w	r5, r2, r3, lsl #12
 12006e0:	f441 1180 	orr.w	r1, r1, #1048576	; 0x100000
 12006e4:	f443 1380 	orr.w	r3, r3, #1048576	; 0x100000
 12006e8:	d038      	beq.n	120075c <__aeabi_dmul+0xb4>
 12006ea:	fba0 ce02 	umull	ip, lr, r0, r2
 12006ee:	f04f 0500 	mov.w	r5, #0
 12006f2:	fbe1 e502 	umlal	lr, r5, r1, r2
 12006f6:	f006 4200 	and.w	r2, r6, #2147483648	; 0x80000000
 12006fa:	fbe0 e503 	umlal	lr, r5, r0, r3
 12006fe:	f04f 0600 	mov.w	r6, #0
 1200702:	fbe1 5603 	umlal	r5, r6, r1, r3
 1200706:	f09c 0f00 	teq	ip, #0
 120070a:	bf18      	it	ne
 120070c:	f04e 0e01 	orrne.w	lr, lr, #1
 1200710:	f1a4 04ff 	sub.w	r4, r4, #255	; 0xff
 1200714:	f5b6 7f00 	cmp.w	r6, #512	; 0x200
 1200718:	f564 7440 	sbc.w	r4, r4, #768	; 0x300
 120071c:	d204      	bcs.n	1200728 <__aeabi_dmul+0x80>
 120071e:	ea5f 0e4e 	movs.w	lr, lr, lsl #1
 1200722:	416d      	adcs	r5, r5
 1200724:	eb46 0606 	adc.w	r6, r6, r6
 1200728:	ea42 21c6 	orr.w	r1, r2, r6, lsl #11
 120072c:	ea41 5155 	orr.w	r1, r1, r5, lsr #21
 1200730:	ea4f 20c5 	mov.w	r0, r5, lsl #11
 1200734:	ea40 505e 	orr.w	r0, r0, lr, lsr #21
 1200738:	ea4f 2ece 	mov.w	lr, lr, lsl #11
 120073c:	f1b4 0cfd 	subs.w	ip, r4, #253	; 0xfd
 1200740:	bf88      	it	hi
 1200742:	f5bc 6fe0 	cmphi.w	ip, #1792	; 0x700
 1200746:	d81e      	bhi.n	1200786 <__aeabi_dmul+0xde>
 1200748:	f1be 4f00 	cmp.w	lr, #2147483648	; 0x80000000
 120074c:	bf08      	it	eq
 120074e:	ea5f 0e50 	movseq.w	lr, r0, lsr #1
 1200752:	f150 0000 	adcs.w	r0, r0, #0
 1200756:	eb41 5104 	adc.w	r1, r1, r4, lsl #20
 120075a:	bd70      	pop	{r4, r5, r6, pc}
 120075c:	f006 4600 	and.w	r6, r6, #2147483648	; 0x80000000
 1200760:	ea46 0101 	orr.w	r1, r6, r1
 1200764:	ea40 0002 	orr.w	r0, r0, r2
 1200768:	ea81 0103 	eor.w	r1, r1, r3
 120076c:	ebb4 045c 	subs.w	r4, r4, ip, lsr #1
 1200770:	bfc2      	ittt	gt
 1200772:	ebd4 050c 	rsbsgt	r5, r4, ip
 1200776:	ea41 5104 	orrgt.w	r1, r1, r4, lsl #20
 120077a:	bd70      	popgt	{r4, r5, r6, pc}
 120077c:	f441 1180 	orr.w	r1, r1, #1048576	; 0x100000
 1200780:	f04f 0e00 	mov.w	lr, #0
 1200784:	3c01      	subs	r4, #1
 1200786:	f300 80ab 	bgt.w	12008e0 <__aeabi_dmul+0x238>
 120078a:	f114 0f36 	cmn.w	r4, #54	; 0x36
 120078e:	bfde      	ittt	le
 1200790:	2000      	movle	r0, #0
 1200792:	f001 4100 	andle.w	r1, r1, #2147483648	; 0x80000000
 1200796:	bd70      	pople	{r4, r5, r6, pc}
 1200798:	f1c4 0400 	rsb	r4, r4, #0
 120079c:	3c20      	subs	r4, #32
 120079e:	da35      	bge.n	120080c <__aeabi_dmul+0x164>
 12007a0:	340c      	adds	r4, #12
 12007a2:	dc1b      	bgt.n	12007dc <__aeabi_dmul+0x134>
 12007a4:	f104 0414 	add.w	r4, r4, #20
 12007a8:	f1c4 0520 	rsb	r5, r4, #32
 12007ac:	fa00 f305 	lsl.w	r3, r0, r5
 12007b0:	fa20 f004 	lsr.w	r0, r0, r4
 12007b4:	fa01 f205 	lsl.w	r2, r1, r5
 12007b8:	ea40 0002 	orr.w	r0, r0, r2
 12007bc:	f001 4200 	and.w	r2, r1, #2147483648	; 0x80000000
 12007c0:	f021 4100 	bic.w	r1, r1, #2147483648	; 0x80000000
 12007c4:	eb10 70d3 	adds.w	r0, r0, r3, lsr #31
 12007c8:	fa21 f604 	lsr.w	r6, r1, r4
 12007cc:	eb42 0106 	adc.w	r1, r2, r6
 12007d0:	ea5e 0e43 	orrs.w	lr, lr, r3, lsl #1
 12007d4:	bf08      	it	eq
 12007d6:	ea20 70d3 	biceq.w	r0, r0, r3, lsr #31
 12007da:	bd70      	pop	{r4, r5, r6, pc}
 12007dc:	f1c4 040c 	rsb	r4, r4, #12
 12007e0:	f1c4 0520 	rsb	r5, r4, #32
 12007e4:	fa00 f304 	lsl.w	r3, r0, r4
 12007e8:	fa20 f005 	lsr.w	r0, r0, r5
 12007ec:	fa01 f204 	lsl.w	r2, r1, r4
 12007f0:	ea40 0002 	orr.w	r0, r0, r2
 12007f4:	f001 4100 	and.w	r1, r1, #2147483648	; 0x80000000
 12007f8:	eb10 70d3 	adds.w	r0, r0, r3, lsr #31
 12007fc:	f141 0100 	adc.w	r1, r1, #0
 1200800:	ea5e 0e43 	orrs.w	lr, lr, r3, lsl #1
 1200804:	bf08      	it	eq
 1200806:	ea20 70d3 	biceq.w	r0, r0, r3, lsr #31
 120080a:	bd70      	pop	{r4, r5, r6, pc}
 120080c:	f1c4 0520 	rsb	r5, r4, #32
 1200810:	fa00 f205 	lsl.w	r2, r0, r5
 1200814:	ea4e 0e02 	orr.w	lr, lr, r2
 1200818:	fa20 f304 	lsr.w	r3, r0, r4
 120081c:	fa01 f205 	lsl.w	r2, r1, r5
 1200820:	ea43 0302 	orr.w	r3, r3, r2
 1200824:	fa21 f004 	lsr.w	r0, r1, r4
 1200828:	f001 4100 	and.w	r1, r1, #2147483648	; 0x80000000
 120082c:	fa21 f204 	lsr.w	r2, r1, r4
 1200830:	ea20 0002 	bic.w	r0, r0, r2
 1200834:	eb00 70d3 	add.w	r0, r0, r3, lsr #31
 1200838:	ea5e 0e43 	orrs.w	lr, lr, r3, lsl #1
 120083c:	bf08      	it	eq
 120083e:	ea20 70d3 	biceq.w	r0, r0, r3, lsr #31
 1200842:	bd70      	pop	{r4, r5, r6, pc}
 1200844:	f094 0f00 	teq	r4, #0
 1200848:	d10f      	bne.n	120086a <__aeabi_dmul+0x1c2>
 120084a:	f001 4600 	and.w	r6, r1, #2147483648	; 0x80000000
 120084e:	0040      	lsls	r0, r0, #1
 1200850:	eb41 0101 	adc.w	r1, r1, r1
 1200854:	f411 1f80 	tst.w	r1, #1048576	; 0x100000
 1200858:	bf08      	it	eq
 120085a:	3c01      	subeq	r4, #1
 120085c:	d0f7      	beq.n	120084e <__aeabi_dmul+0x1a6>
 120085e:	ea41 0106 	orr.w	r1, r1, r6
 1200862:	f095 0f00 	teq	r5, #0
 1200866:	bf18      	it	ne
 1200868:	4770      	bxne	lr
 120086a:	f003 4600 	and.w	r6, r3, #2147483648	; 0x80000000
 120086e:	0052      	lsls	r2, r2, #1
 1200870:	eb43 0303 	adc.w	r3, r3, r3
 1200874:	f413 1f80 	tst.w	r3, #1048576	; 0x100000
 1200878:	bf08      	it	eq
 120087a:	3d01      	subeq	r5, #1
 120087c:	d0f7      	beq.n	120086e <__aeabi_dmul+0x1c6>
 120087e:	ea43 0306 	orr.w	r3, r3, r6
 1200882:	4770      	bx	lr
 1200884:	ea94 0f0c 	teq	r4, ip
 1200888:	ea0c 5513 	and.w	r5, ip, r3, lsr #20
 120088c:	bf18      	it	ne
 120088e:	ea95 0f0c 	teqne	r5, ip
 1200892:	d00c      	beq.n	12008ae <__aeabi_dmul+0x206>
 1200894:	ea50 0641 	orrs.w	r6, r0, r1, lsl #1
 1200898:	bf18      	it	ne
 120089a:	ea52 0643 	orrsne.w	r6, r2, r3, lsl #1
 120089e:	d1d1      	bne.n	1200844 <__aeabi_dmul+0x19c>
 12008a0:	ea81 0103 	eor.w	r1, r1, r3
 12008a4:	f001 4100 	and.w	r1, r1, #2147483648	; 0x80000000
 12008a8:	f04f 0000 	mov.w	r0, #0
 12008ac:	bd70      	pop	{r4, r5, r6, pc}
 12008ae:	ea50 0641 	orrs.w	r6, r0, r1, lsl #1
 12008b2:	bf06      	itte	eq
 12008b4:	4610      	moveq	r0, r2
 12008b6:	4619      	moveq	r1, r3
 12008b8:	ea52 0643 	orrsne.w	r6, r2, r3, lsl #1
 12008bc:	d019      	beq.n	12008f2 <__aeabi_dmul+0x24a>
 12008be:	ea94 0f0c 	teq	r4, ip
 12008c2:	d102      	bne.n	12008ca <__aeabi_dmul+0x222>
 12008c4:	ea50 3601 	orrs.w	r6, r0, r1, lsl #12
 12008c8:	d113      	bne.n	12008f2 <__aeabi_dmul+0x24a>
 12008ca:	ea95 0f0c 	teq	r5, ip
 12008ce:	d105      	bne.n	12008dc <__aeabi_dmul+0x234>
 12008d0:	ea52 3603 	orrs.w	r6, r2, r3, lsl #12
 12008d4:	bf1c      	itt	ne
 12008d6:	4610      	movne	r0, r2
 12008d8:	4619      	movne	r1, r3
 12008da:	d10a      	bne.n	12008f2 <__aeabi_dmul+0x24a>
 12008dc:	ea81 0103 	eor.w	r1, r1, r3
 12008e0:	f001 4100 	and.w	r1, r1, #2147483648	; 0x80000000
 12008e4:	f041 41fe 	orr.w	r1, r1, #2130706432	; 0x7f000000
 12008e8:	f441 0170 	orr.w	r1, r1, #15728640	; 0xf00000
 12008ec:	f04f 0000 	mov.w	r0, #0
 12008f0:	bd70      	pop	{r4, r5, r6, pc}
 12008f2:	f041 41fe 	orr.w	r1, r1, #2130706432	; 0x7f000000
 12008f6:	f441 0178 	orr.w	r1, r1, #16252928	; 0xf80000
 12008fa:	bd70      	pop	{r4, r5, r6, pc}

012008fc <__aeabi_ddiv>:
 12008fc:	b570      	push	{r4, r5, r6, lr}
 12008fe:	f04f 0cff 	mov.w	ip, #255	; 0xff
 1200902:	f44c 6ce0 	orr.w	ip, ip, #1792	; 0x700
 1200906:	ea1c 5411 	ands.w	r4, ip, r1, lsr #20
 120090a:	bf1d      	ittte	ne
 120090c:	ea1c 5513 	andsne.w	r5, ip, r3, lsr #20
 1200910:	ea94 0f0c 	teqne	r4, ip
 1200914:	ea95 0f0c 	teqne	r5, ip
 1200918:	f000 f8a7 	bleq	1200a6a <__aeabi_ddiv+0x16e>
 120091c:	eba4 0405 	sub.w	r4, r4, r5
 1200920:	ea81 0e03 	eor.w	lr, r1, r3
 1200924:	ea52 3503 	orrs.w	r5, r2, r3, lsl #12
 1200928:	ea4f 3101 	mov.w	r1, r1, lsl #12
 120092c:	f000 8088 	beq.w	1200a40 <__aeabi_ddiv+0x144>
 1200930:	ea4f 3303 	mov.w	r3, r3, lsl #12
 1200934:	f04f 5580 	mov.w	r5, #268435456	; 0x10000000
 1200938:	ea45 1313 	orr.w	r3, r5, r3, lsr #4
 120093c:	ea43 6312 	orr.w	r3, r3, r2, lsr #24
 1200940:	ea4f 2202 	mov.w	r2, r2, lsl #8
 1200944:	ea45 1511 	orr.w	r5, r5, r1, lsr #4
 1200948:	ea45 6510 	orr.w	r5, r5, r0, lsr #24
 120094c:	ea4f 2600 	mov.w	r6, r0, lsl #8
 1200950:	f00e 4100 	and.w	r1, lr, #2147483648	; 0x80000000
 1200954:	429d      	cmp	r5, r3
 1200956:	bf08      	it	eq
 1200958:	4296      	cmpeq	r6, r2
 120095a:	f144 04fd 	adc.w	r4, r4, #253	; 0xfd
 120095e:	f504 7440 	add.w	r4, r4, #768	; 0x300
 1200962:	d202      	bcs.n	120096a <__aeabi_ddiv+0x6e>
 1200964:	085b      	lsrs	r3, r3, #1
 1200966:	ea4f 0232 	mov.w	r2, r2, rrx
 120096a:	1ab6      	subs	r6, r6, r2
 120096c:	eb65 0503 	sbc.w	r5, r5, r3
 1200970:	085b      	lsrs	r3, r3, #1
 1200972:	ea4f 0232 	mov.w	r2, r2, rrx
 1200976:	f44f 1080 	mov.w	r0, #1048576	; 0x100000
 120097a:	f44f 2c00 	mov.w	ip, #524288	; 0x80000
 120097e:	ebb6 0e02 	subs.w	lr, r6, r2
 1200982:	eb75 0e03 	sbcs.w	lr, r5, r3
 1200986:	bf22      	ittt	cs
 1200988:	1ab6      	subcs	r6, r6, r2
 120098a:	4675      	movcs	r5, lr
 120098c:	ea40 000c 	orrcs.w	r0, r0, ip
 1200990:	085b      	lsrs	r3, r3, #1
 1200992:	ea4f 0232 	mov.w	r2, r2, rrx
 1200996:	ebb6 0e02 	subs.w	lr, r6, r2
 120099a:	eb75 0e03 	sbcs.w	lr, r5, r3
 120099e:	bf22      	ittt	cs
 12009a0:	1ab6      	subcs	r6, r6, r2
 12009a2:	4675      	movcs	r5, lr
 12009a4:	ea40 005c 	orrcs.w	r0, r0, ip, lsr #1
 12009a8:	085b      	lsrs	r3, r3, #1
 12009aa:	ea4f 0232 	mov.w	r2, r2, rrx
 12009ae:	ebb6 0e02 	subs.w	lr, r6, r2
 12009b2:	eb75 0e03 	sbcs.w	lr, r5, r3
 12009b6:	bf22      	ittt	cs
 12009b8:	1ab6      	subcs	r6, r6, r2
 12009ba:	4675      	movcs	r5, lr
 12009bc:	ea40 009c 	orrcs.w	r0, r0, ip, lsr #2
 12009c0:	085b      	lsrs	r3, r3, #1
 12009c2:	ea4f 0232 	mov.w	r2, r2, rrx
 12009c6:	ebb6 0e02 	subs.w	lr, r6, r2
 12009ca:	eb75 0e03 	sbcs.w	lr, r5, r3
 12009ce:	bf22      	ittt	cs
 12009d0:	1ab6      	subcs	r6, r6, r2
 12009d2:	4675      	movcs	r5, lr
 12009d4:	ea40 00dc 	orrcs.w	r0, r0, ip, lsr #3
 12009d8:	ea55 0e06 	orrs.w	lr, r5, r6
 12009dc:	d018      	beq.n	1200a10 <__aeabi_ddiv+0x114>
 12009de:	ea4f 1505 	mov.w	r5, r5, lsl #4
 12009e2:	ea45 7516 	orr.w	r5, r5, r6, lsr #28
 12009e6:	ea4f 1606 	mov.w	r6, r6, lsl #4
 12009ea:	ea4f 03c3 	mov.w	r3, r3, lsl #3
 12009ee:	ea43 7352 	orr.w	r3, r3, r2, lsr #29
 12009f2:	ea4f 02c2 	mov.w	r2, r2, lsl #3
 12009f6:	ea5f 1c1c 	movs.w	ip, ip, lsr #4
 12009fa:	d1c0      	bne.n	120097e <__aeabi_ddiv+0x82>
 12009fc:	f411 1f80 	tst.w	r1, #1048576	; 0x100000
 1200a00:	d10b      	bne.n	1200a1a <__aeabi_ddiv+0x11e>
 1200a02:	ea41 0100 	orr.w	r1, r1, r0
 1200a06:	f04f 0000 	mov.w	r0, #0
 1200a0a:	f04f 4c00 	mov.w	ip, #2147483648	; 0x80000000
 1200a0e:	e7b6      	b.n	120097e <__aeabi_ddiv+0x82>
 1200a10:	f411 1f80 	tst.w	r1, #1048576	; 0x100000
 1200a14:	bf04      	itt	eq
 1200a16:	4301      	orreq	r1, r0
 1200a18:	2000      	moveq	r0, #0
 1200a1a:	f1b4 0cfd 	subs.w	ip, r4, #253	; 0xfd
 1200a1e:	bf88      	it	hi
 1200a20:	f5bc 6fe0 	cmphi.w	ip, #1792	; 0x700
 1200a24:	f63f aeaf 	bhi.w	1200786 <__aeabi_dmul+0xde>
 1200a28:	ebb5 0c03 	subs.w	ip, r5, r3
 1200a2c:	bf04      	itt	eq
 1200a2e:	ebb6 0c02 	subseq.w	ip, r6, r2
 1200a32:	ea5f 0c50 	movseq.w	ip, r0, lsr #1
 1200a36:	f150 0000 	adcs.w	r0, r0, #0
 1200a3a:	eb41 5104 	adc.w	r1, r1, r4, lsl #20
 1200a3e:	bd70      	pop	{r4, r5, r6, pc}
 1200a40:	f00e 4e00 	and.w	lr, lr, #2147483648	; 0x80000000
 1200a44:	ea4e 3111 	orr.w	r1, lr, r1, lsr #12
 1200a48:	eb14 045c 	adds.w	r4, r4, ip, lsr #1
 1200a4c:	bfc2      	ittt	gt
 1200a4e:	ebd4 050c 	rsbsgt	r5, r4, ip
 1200a52:	ea41 5104 	orrgt.w	r1, r1, r4, lsl #20
 1200a56:	bd70      	popgt	{r4, r5, r6, pc}
 1200a58:	f441 1180 	orr.w	r1, r1, #1048576	; 0x100000
 1200a5c:	f04f 0e00 	mov.w	lr, #0
 1200a60:	3c01      	subs	r4, #1
 1200a62:	e690      	b.n	1200786 <__aeabi_dmul+0xde>
 1200a64:	ea45 0e06 	orr.w	lr, r5, r6
 1200a68:	e68d      	b.n	1200786 <__aeabi_dmul+0xde>
 1200a6a:	ea0c 5513 	and.w	r5, ip, r3, lsr #20
 1200a6e:	ea94 0f0c 	teq	r4, ip
 1200a72:	bf08      	it	eq
 1200a74:	ea95 0f0c 	teqeq	r5, ip
 1200a78:	f43f af3b 	beq.w	12008f2 <__aeabi_dmul+0x24a>
 1200a7c:	ea94 0f0c 	teq	r4, ip
 1200a80:	d10a      	bne.n	1200a98 <__aeabi_ddiv+0x19c>
 1200a82:	ea50 3401 	orrs.w	r4, r0, r1, lsl #12
 1200a86:	f47f af34 	bne.w	12008f2 <__aeabi_dmul+0x24a>
 1200a8a:	ea95 0f0c 	teq	r5, ip
 1200a8e:	f47f af25 	bne.w	12008dc <__aeabi_dmul+0x234>
 1200a92:	4610      	mov	r0, r2
 1200a94:	4619      	mov	r1, r3
 1200a96:	e72c      	b.n	12008f2 <__aeabi_dmul+0x24a>
 1200a98:	ea95 0f0c 	teq	r5, ip
 1200a9c:	d106      	bne.n	1200aac <__aeabi_ddiv+0x1b0>
 1200a9e:	ea52 3503 	orrs.w	r5, r2, r3, lsl #12
 1200aa2:	f43f aefd 	beq.w	12008a0 <__aeabi_dmul+0x1f8>
 1200aa6:	4610      	mov	r0, r2
 1200aa8:	4619      	mov	r1, r3
 1200aaa:	e722      	b.n	12008f2 <__aeabi_dmul+0x24a>
 1200aac:	ea50 0641 	orrs.w	r6, r0, r1, lsl #1
 1200ab0:	bf18      	it	ne
 1200ab2:	ea52 0643 	orrsne.w	r6, r2, r3, lsl #1
 1200ab6:	f47f aec5 	bne.w	1200844 <__aeabi_dmul+0x19c>
 1200aba:	ea50 0441 	orrs.w	r4, r0, r1, lsl #1
 1200abe:	f47f af0d 	bne.w	12008dc <__aeabi_dmul+0x234>
 1200ac2:	ea52 0543 	orrs.w	r5, r2, r3, lsl #1
 1200ac6:	f47f aeeb 	bne.w	12008a0 <__aeabi_dmul+0x1f8>
 1200aca:	e712      	b.n	12008f2 <__aeabi_dmul+0x24a>

01200acc <__gedf2>:
 1200acc:	f04f 3cff 	mov.w	ip, #4294967295
 1200ad0:	e006      	b.n	1200ae0 <__cmpdf2+0x4>
 1200ad2:	bf00      	nop

01200ad4 <__ledf2>:
 1200ad4:	f04f 0c01 	mov.w	ip, #1
 1200ad8:	e002      	b.n	1200ae0 <__cmpdf2+0x4>
 1200ada:	bf00      	nop

01200adc <__cmpdf2>:
 1200adc:	f04f 0c01 	mov.w	ip, #1
 1200ae0:	f84d cd04 	str.w	ip, [sp, #-4]!
 1200ae4:	ea4f 0c41 	mov.w	ip, r1, lsl #1
 1200ae8:	ea7f 5c6c 	mvns.w	ip, ip, asr #21
 1200aec:	ea4f 0c43 	mov.w	ip, r3, lsl #1
 1200af0:	bf18      	it	ne
 1200af2:	ea7f 5c6c 	mvnsne.w	ip, ip, asr #21
 1200af6:	d01b      	beq.n	1200b30 <__cmpdf2+0x54>
 1200af8:	b001      	add	sp, #4
 1200afa:	ea50 0c41 	orrs.w	ip, r0, r1, lsl #1
 1200afe:	bf0c      	ite	eq
 1200b00:	ea52 0c43 	orrseq.w	ip, r2, r3, lsl #1
 1200b04:	ea91 0f03 	teqne	r1, r3
 1200b08:	bf02      	ittt	eq
 1200b0a:	ea90 0f02 	teqeq	r0, r2
 1200b0e:	2000      	moveq	r0, #0
 1200b10:	4770      	bxeq	lr
 1200b12:	f110 0f00 	cmn.w	r0, #0
 1200b16:	ea91 0f03 	teq	r1, r3
 1200b1a:	bf58      	it	pl
 1200b1c:	4299      	cmppl	r1, r3
 1200b1e:	bf08      	it	eq
 1200b20:	4290      	cmpeq	r0, r2
 1200b22:	bf2c      	ite	cs
 1200b24:	17d8      	asrcs	r0, r3, #31
 1200b26:	ea6f 70e3 	mvncc.w	r0, r3, asr #31
 1200b2a:	f040 0001 	orr.w	r0, r0, #1
 1200b2e:	4770      	bx	lr
 1200b30:	ea4f 0c41 	mov.w	ip, r1, lsl #1
 1200b34:	ea7f 5c6c 	mvns.w	ip, ip, asr #21
 1200b38:	d102      	bne.n	1200b40 <__cmpdf2+0x64>
 1200b3a:	ea50 3c01 	orrs.w	ip, r0, r1, lsl #12
 1200b3e:	d107      	bne.n	1200b50 <__cmpdf2+0x74>
 1200b40:	ea4f 0c43 	mov.w	ip, r3, lsl #1
 1200b44:	ea7f 5c6c 	mvns.w	ip, ip, asr #21
 1200b48:	d1d6      	bne.n	1200af8 <__cmpdf2+0x1c>
 1200b4a:	ea52 3c03 	orrs.w	ip, r2, r3, lsl #12
 1200b4e:	d0d3      	beq.n	1200af8 <__cmpdf2+0x1c>
 1200b50:	f85d 0b04 	ldr.w	r0, [sp], #4
 1200b54:	4770      	bx	lr
 1200b56:	bf00      	nop

01200b58 <__aeabi_cdrcmple>:
 1200b58:	4684      	mov	ip, r0
 1200b5a:	4610      	mov	r0, r2
 1200b5c:	4662      	mov	r2, ip
 1200b5e:	468c      	mov	ip, r1
 1200b60:	4619      	mov	r1, r3
 1200b62:	4663      	mov	r3, ip
 1200b64:	e000      	b.n	1200b68 <__aeabi_cdcmpeq>
 1200b66:	bf00      	nop

01200b68 <__aeabi_cdcmpeq>:
 1200b68:	b501      	push	{r0, lr}
 1200b6a:	f7ff ffb7 	bl	1200adc <__cmpdf2>
 1200b6e:	2800      	cmp	r0, #0
 1200b70:	bf48      	it	mi
 1200b72:	f110 0f00 	cmnmi.w	r0, #0
 1200b76:	bd01      	pop	{r0, pc}

01200b78 <__aeabi_dcmpeq>:
 1200b78:	f84d ed08 	str.w	lr, [sp, #-8]!
 1200b7c:	f7ff fff4 	bl	1200b68 <__aeabi_cdcmpeq>
 1200b80:	bf0c      	ite	eq
 1200b82:	2001      	moveq	r0, #1
 1200b84:	2000      	movne	r0, #0
 1200b86:	f85d fb08 	ldr.w	pc, [sp], #8
 1200b8a:	bf00      	nop

01200b8c <__aeabi_dcmplt>:
 1200b8c:	f84d ed08 	str.w	lr, [sp, #-8]!
 1200b90:	f7ff ffea 	bl	1200b68 <__aeabi_cdcmpeq>
 1200b94:	bf34      	ite	cc
 1200b96:	2001      	movcc	r0, #1
 1200b98:	2000      	movcs	r0, #0
 1200b9a:	f85d fb08 	ldr.w	pc, [sp], #8
 1200b9e:	bf00      	nop

01200ba0 <__aeabi_dcmple>:
 1200ba0:	f84d ed08 	str.w	lr, [sp, #-8]!
 1200ba4:	f7ff ffe0 	bl	1200b68 <__aeabi_cdcmpeq>
 1200ba8:	bf94      	ite	ls
 1200baa:	2001      	movls	r0, #1
 1200bac:	2000      	movhi	r0, #0
 1200bae:	f85d fb08 	ldr.w	pc, [sp], #8
 1200bb2:	bf00      	nop

01200bb4 <__aeabi_dcmpge>:
 1200bb4:	f84d ed08 	str.w	lr, [sp, #-8]!
 1200bb8:	f7ff ffce 	bl	1200b58 <__aeabi_cdrcmple>
 1200bbc:	bf94      	ite	ls
 1200bbe:	2001      	movls	r0, #1
 1200bc0:	2000      	movhi	r0, #0
 1200bc2:	f85d fb08 	ldr.w	pc, [sp], #8
 1200bc6:	bf00      	nop

01200bc8 <__aeabi_dcmpgt>:
 1200bc8:	f84d ed08 	str.w	lr, [sp, #-8]!
 1200bcc:	f7ff ffc4 	bl	1200b58 <__aeabi_cdrcmple>
 1200bd0:	bf34      	ite	cc
 1200bd2:	2001      	movcc	r0, #1
 1200bd4:	2000      	movcs	r0, #0
 1200bd6:	f85d fb08 	ldr.w	pc, [sp], #8
 1200bda:	bf00      	nop

01200bdc <__aeabi_d2iz>:
 1200bdc:	ea4f 0241 	mov.w	r2, r1, lsl #1
 1200be0:	f512 1200 	adds.w	r2, r2, #2097152	; 0x200000
 1200be4:	d215      	bcs.n	1200c12 <__aeabi_d2iz+0x36>
 1200be6:	d511      	bpl.n	1200c0c <__aeabi_d2iz+0x30>
 1200be8:	f46f 7378 	mvn.w	r3, #992	; 0x3e0
 1200bec:	ebb3 5262 	subs.w	r2, r3, r2, asr #21
 1200bf0:	d912      	bls.n	1200c18 <__aeabi_d2iz+0x3c>
 1200bf2:	ea4f 23c1 	mov.w	r3, r1, lsl #11
 1200bf6:	f043 4300 	orr.w	r3, r3, #2147483648	; 0x80000000
 1200bfa:	ea43 5350 	orr.w	r3, r3, r0, lsr #21
 1200bfe:	f011 4f00 	tst.w	r1, #2147483648	; 0x80000000
 1200c02:	fa23 f002 	lsr.w	r0, r3, r2
 1200c06:	bf18      	it	ne
 1200c08:	4240      	negne	r0, r0
 1200c0a:	4770      	bx	lr
 1200c0c:	f04f 0000 	mov.w	r0, #0
 1200c10:	4770      	bx	lr
 1200c12:	ea50 3001 	orrs.w	r0, r0, r1, lsl #12
 1200c16:	d105      	bne.n	1200c24 <__aeabi_d2iz+0x48>
 1200c18:	f011 4000 	ands.w	r0, r1, #2147483648	; 0x80000000
 1200c1c:	bf08      	it	eq
 1200c1e:	f06f 4000 	mvneq.w	r0, #2147483648	; 0x80000000
 1200c22:	4770      	bx	lr
 1200c24:	f04f 0000 	mov.w	r0, #0
 1200c28:	4770      	bx	lr
 1200c2a:	bf00      	nop

01200c2c <__aeabi_uldivmod>:
 1200c2c:	b94b      	cbnz	r3, 1200c42 <__aeabi_uldivmod+0x16>
 1200c2e:	b942      	cbnz	r2, 1200c42 <__aeabi_uldivmod+0x16>
 1200c30:	2900      	cmp	r1, #0
 1200c32:	bf08      	it	eq
 1200c34:	2800      	cmpeq	r0, #0
 1200c36:	d002      	beq.n	1200c3e <__aeabi_uldivmod+0x12>
 1200c38:	f04f 31ff 	mov.w	r1, #4294967295
 1200c3c:	4608      	mov	r0, r1
 1200c3e:	f000 b83b 	b.w	1200cb8 <__aeabi_idiv0>
 1200c42:	b082      	sub	sp, #8
 1200c44:	46ec      	mov	ip, sp
 1200c46:	e92d 5000 	stmdb	sp!, {ip, lr}
 1200c4a:	f000 f81d 	bl	1200c88 <__gnu_uldivmod_helper>
 1200c4e:	f8dd e004 	ldr.w	lr, [sp, #4]
 1200c52:	b002      	add	sp, #8
 1200c54:	bc0c      	pop	{r2, r3}
 1200c56:	4770      	bx	lr

01200c58 <__gnu_ldivmod_helper>:
 1200c58:	e92d 41f0 	stmdb	sp!, {r4, r5, r6, r7, r8, lr}
 1200c5c:	4616      	mov	r6, r2
 1200c5e:	4698      	mov	r8, r3
 1200c60:	4604      	mov	r4, r0
 1200c62:	460d      	mov	r5, r1
 1200c64:	f000 f82a 	bl	1200cbc <__divdi3>
 1200c68:	fb06 fc01 	mul.w	ip, r6, r1
 1200c6c:	fba6 2300 	umull	r2, r3, r6, r0
 1200c70:	fb00 c708 	mla	r7, r0, r8, ip
 1200c74:	18fb      	adds	r3, r7, r3
 1200c76:	1aa2      	subs	r2, r4, r2
 1200c78:	eb65 0303 	sbc.w	r3, r5, r3
 1200c7c:	9c06      	ldr	r4, [sp, #24]
 1200c7e:	e9c4 2300 	strd	r2, r3, [r4]
 1200c82:	e8bd 81f0 	ldmia.w	sp!, {r4, r5, r6, r7, r8, pc}
 1200c86:	bf00      	nop

01200c88 <__gnu_uldivmod_helper>:
 1200c88:	e92d 41f0 	stmdb	sp!, {r4, r5, r6, r7, r8, lr}
 1200c8c:	4690      	mov	r8, r2
 1200c8e:	4606      	mov	r6, r0
 1200c90:	460f      	mov	r7, r1
 1200c92:	461d      	mov	r5, r3
 1200c94:	f000 f970 	bl	1200f78 <__udivdi3>
 1200c98:	fb00 f305 	mul.w	r3, r0, r5
 1200c9c:	fba0 4508 	umull	r4, r5, r0, r8
 1200ca0:	fb08 3801 	mla	r8, r8, r1, r3
 1200ca4:	9b06      	ldr	r3, [sp, #24]
 1200ca6:	4445      	add	r5, r8
 1200ca8:	1b34      	subs	r4, r6, r4
 1200caa:	eb67 0505 	sbc.w	r5, r7, r5
 1200cae:	e9c3 4500 	strd	r4, r5, [r3]
 1200cb2:	e8bd 81f0 	ldmia.w	sp!, {r4, r5, r6, r7, r8, pc}
 1200cb6:	bf00      	nop

01200cb8 <__aeabi_idiv0>:
 1200cb8:	4770      	bx	lr
 1200cba:	bf00      	nop

01200cbc <__divdi3>:
 1200cbc:	2900      	cmp	r1, #0
 1200cbe:	e92d 0ff0 	stmdb	sp!, {r4, r5, r6, r7, r8, r9, sl, fp}
 1200cc2:	461d      	mov	r5, r3
 1200cc4:	f2c0 809d 	blt.w	1200e02 <__divdi3+0x146>
 1200cc8:	2400      	movs	r4, #0
 1200cca:	2d00      	cmp	r5, #0
 1200ccc:	f2c0 8094 	blt.w	1200df8 <__divdi3+0x13c>
 1200cd0:	4680      	mov	r8, r0
 1200cd2:	460f      	mov	r7, r1
 1200cd4:	4694      	mov	ip, r2
 1200cd6:	461e      	mov	r6, r3
 1200cd8:	bbe3      	cbnz	r3, 1200d54 <__divdi3+0x98>
 1200cda:	428a      	cmp	r2, r1
 1200cdc:	d955      	bls.n	1200d8a <__divdi3+0xce>
 1200cde:	fab2 f782 	clz	r7, r2
 1200ce2:	b147      	cbz	r7, 1200cf6 <__divdi3+0x3a>
 1200ce4:	f1c7 0520 	rsb	r5, r7, #32
 1200ce8:	fa20 f605 	lsr.w	r6, r0, r5
 1200cec:	fa01 f107 	lsl.w	r1, r1, r7
 1200cf0:	40ba      	lsls	r2, r7
 1200cf2:	40b8      	lsls	r0, r7
 1200cf4:	4331      	orrs	r1, r6
 1200cf6:	0c17      	lsrs	r7, r2, #16
 1200cf8:	fbb1 f6f7 	udiv	r6, r1, r7
 1200cfc:	fa1f fc82 	uxth.w	ip, r2
 1200d00:	fb07 1116 	mls	r1, r7, r6, r1
 1200d04:	fb0c f506 	mul.w	r5, ip, r6
 1200d08:	0c03      	lsrs	r3, r0, #16
 1200d0a:	ea43 4301 	orr.w	r3, r3, r1, lsl #16
 1200d0e:	429d      	cmp	r5, r3
 1200d10:	d908      	bls.n	1200d24 <__divdi3+0x68>
 1200d12:	1e71      	subs	r1, r6, #1
 1200d14:	189b      	adds	r3, r3, r2
 1200d16:	f080 8113 	bcs.w	1200f40 <__divdi3+0x284>
 1200d1a:	429d      	cmp	r5, r3
 1200d1c:	f240 8110 	bls.w	1200f40 <__divdi3+0x284>
 1200d20:	3e02      	subs	r6, #2
 1200d22:	189b      	adds	r3, r3, r2
 1200d24:	1b59      	subs	r1, r3, r5
 1200d26:	fbb1 f5f7 	udiv	r5, r1, r7
 1200d2a:	fb07 1315 	mls	r3, r7, r5, r1
 1200d2e:	fb0c fc05 	mul.w	ip, ip, r5
 1200d32:	b280      	uxth	r0, r0
 1200d34:	ea40 4103 	orr.w	r1, r0, r3, lsl #16
 1200d38:	458c      	cmp	ip, r1
 1200d3a:	d907      	bls.n	1200d4c <__divdi3+0x90>
 1200d3c:	1e6b      	subs	r3, r5, #1
 1200d3e:	188a      	adds	r2, r1, r2
 1200d40:	f080 8100 	bcs.w	1200f44 <__divdi3+0x288>
 1200d44:	4594      	cmp	ip, r2
 1200d46:	f240 80fd 	bls.w	1200f44 <__divdi3+0x288>
 1200d4a:	3d02      	subs	r5, #2
 1200d4c:	ea45 4106 	orr.w	r1, r5, r6, lsl #16
 1200d50:	2500      	movs	r5, #0
 1200d52:	e003      	b.n	1200d5c <__divdi3+0xa0>
 1200d54:	428b      	cmp	r3, r1
 1200d56:	d90c      	bls.n	1200d72 <__divdi3+0xb6>
 1200d58:	2500      	movs	r5, #0
 1200d5a:	4629      	mov	r1, r5
 1200d5c:	460a      	mov	r2, r1
 1200d5e:	462b      	mov	r3, r5
 1200d60:	b114      	cbz	r4, 1200d68 <__divdi3+0xac>
 1200d62:	4252      	negs	r2, r2
 1200d64:	eb63 0343 	sbc.w	r3, r3, r3, lsl #1
 1200d68:	4610      	mov	r0, r2
 1200d6a:	4619      	mov	r1, r3
 1200d6c:	e8bd 0ff0 	ldmia.w	sp!, {r4, r5, r6, r7, r8, r9, sl, fp}
 1200d70:	4770      	bx	lr
 1200d72:	fab3 f583 	clz	r5, r3
 1200d76:	2d00      	cmp	r5, #0
 1200d78:	f040 8087 	bne.w	1200e8a <__divdi3+0x1ce>
 1200d7c:	428b      	cmp	r3, r1
 1200d7e:	d301      	bcc.n	1200d84 <__divdi3+0xc8>
 1200d80:	4282      	cmp	r2, r0
 1200d82:	d8ea      	bhi.n	1200d5a <__divdi3+0x9e>
 1200d84:	2500      	movs	r5, #0
 1200d86:	2101      	movs	r1, #1
 1200d88:	e7e8      	b.n	1200d5c <__divdi3+0xa0>
 1200d8a:	b912      	cbnz	r2, 1200d92 <__divdi3+0xd6>
 1200d8c:	2601      	movs	r6, #1
 1200d8e:	fbb6 f2f2 	udiv	r2, r6, r2
 1200d92:	fab2 f682 	clz	r6, r2
 1200d96:	2e00      	cmp	r6, #0
 1200d98:	d139      	bne.n	1200e0e <__divdi3+0x152>
 1200d9a:	1a8e      	subs	r6, r1, r2
 1200d9c:	0c13      	lsrs	r3, r2, #16
 1200d9e:	fa1f fc82 	uxth.w	ip, r2
 1200da2:	2501      	movs	r5, #1
 1200da4:	fbb6 f7f3 	udiv	r7, r6, r3
 1200da8:	fb03 6117 	mls	r1, r3, r7, r6
 1200dac:	fb0c f807 	mul.w	r8, ip, r7
 1200db0:	ea4f 4910 	mov.w	r9, r0, lsr #16
 1200db4:	ea49 4601 	orr.w	r6, r9, r1, lsl #16
 1200db8:	45b0      	cmp	r8, r6
 1200dba:	d906      	bls.n	1200dca <__divdi3+0x10e>
 1200dbc:	1e79      	subs	r1, r7, #1
 1200dbe:	18b6      	adds	r6, r6, r2
 1200dc0:	d202      	bcs.n	1200dc8 <__divdi3+0x10c>
 1200dc2:	45b0      	cmp	r8, r6
 1200dc4:	f200 80d3 	bhi.w	1200f6e <__divdi3+0x2b2>
 1200dc8:	460f      	mov	r7, r1
 1200dca:	ebc8 0606 	rsb	r6, r8, r6
 1200dce:	fbb6 f1f3 	udiv	r1, r6, r3
 1200dd2:	fb03 6311 	mls	r3, r3, r1, r6
 1200dd6:	fb0c fc01 	mul.w	ip, ip, r1
 1200dda:	b280      	uxth	r0, r0
 1200ddc:	ea40 4303 	orr.w	r3, r0, r3, lsl #16
 1200de0:	459c      	cmp	ip, r3
 1200de2:	d906      	bls.n	1200df2 <__divdi3+0x136>
 1200de4:	1e4e      	subs	r6, r1, #1
 1200de6:	189a      	adds	r2, r3, r2
 1200de8:	d202      	bcs.n	1200df0 <__divdi3+0x134>
 1200dea:	4594      	cmp	ip, r2
 1200dec:	f200 80c2 	bhi.w	1200f74 <__divdi3+0x2b8>
 1200df0:	4631      	mov	r1, r6
 1200df2:	ea41 4107 	orr.w	r1, r1, r7, lsl #16
 1200df6:	e7b1      	b.n	1200d5c <__divdi3+0xa0>
 1200df8:	43e4      	mvns	r4, r4
 1200dfa:	4252      	negs	r2, r2
 1200dfc:	eb63 0343 	sbc.w	r3, r3, r3, lsl #1
 1200e00:	e766      	b.n	1200cd0 <__divdi3+0x14>
 1200e02:	4240      	negs	r0, r0
 1200e04:	eb61 0141 	sbc.w	r1, r1, r1, lsl #1
 1200e08:	f04f 34ff 	mov.w	r4, #4294967295
 1200e0c:	e75d      	b.n	1200cca <__divdi3+0xe>
 1200e0e:	40b2      	lsls	r2, r6
 1200e10:	f1c6 0920 	rsb	r9, r6, #32
 1200e14:	fa21 f709 	lsr.w	r7, r1, r9
 1200e18:	fa20 f909 	lsr.w	r9, r0, r9
 1200e1c:	fa01 f106 	lsl.w	r1, r1, r6
 1200e20:	0c13      	lsrs	r3, r2, #16
 1200e22:	fbb7 f8f3 	udiv	r8, r7, r3
 1200e26:	fa1f fc82 	uxth.w	ip, r2
 1200e2a:	fb03 7718 	mls	r7, r3, r8, r7
 1200e2e:	fb0c f508 	mul.w	r5, ip, r8
 1200e32:	ea49 0901 	orr.w	r9, r9, r1
 1200e36:	ea4f 4119 	mov.w	r1, r9, lsr #16
 1200e3a:	ea41 4707 	orr.w	r7, r1, r7, lsl #16
 1200e3e:	40b0      	lsls	r0, r6
 1200e40:	42bd      	cmp	r5, r7
 1200e42:	d90a      	bls.n	1200e5a <__divdi3+0x19e>
 1200e44:	18bf      	adds	r7, r7, r2
 1200e46:	f108 36ff 	add.w	r6, r8, #4294967295
 1200e4a:	f080 808e 	bcs.w	1200f6a <__divdi3+0x2ae>
 1200e4e:	42bd      	cmp	r5, r7
 1200e50:	f240 808b 	bls.w	1200f6a <__divdi3+0x2ae>
 1200e54:	f1a8 0802 	sub.w	r8, r8, #2
 1200e58:	18bf      	adds	r7, r7, r2
 1200e5a:	1b79      	subs	r1, r7, r5
 1200e5c:	fbb1 f5f3 	udiv	r5, r1, r3
 1200e60:	fb03 1715 	mls	r7, r3, r5, r1
 1200e64:	fb0c f605 	mul.w	r6, ip, r5
 1200e68:	fa1f f989 	uxth.w	r9, r9
 1200e6c:	ea49 4107 	orr.w	r1, r9, r7, lsl #16
 1200e70:	428e      	cmp	r6, r1
 1200e72:	d906      	bls.n	1200e82 <__divdi3+0x1c6>
 1200e74:	1e6f      	subs	r7, r5, #1
 1200e76:	1889      	adds	r1, r1, r2
 1200e78:	d271      	bcs.n	1200f5e <__divdi3+0x2a2>
 1200e7a:	428e      	cmp	r6, r1
 1200e7c:	d96f      	bls.n	1200f5e <__divdi3+0x2a2>
 1200e7e:	3d02      	subs	r5, #2
 1200e80:	1889      	adds	r1, r1, r2
 1200e82:	1b8e      	subs	r6, r1, r6
 1200e84:	ea45 4508 	orr.w	r5, r5, r8, lsl #16
 1200e88:	e78c      	b.n	1200da4 <__divdi3+0xe8>
 1200e8a:	f1c5 0120 	rsb	r1, r5, #32
 1200e8e:	fa22 f301 	lsr.w	r3, r2, r1
 1200e92:	fa06 f605 	lsl.w	r6, r6, r5
 1200e96:	fa27 f201 	lsr.w	r2, r7, r1
 1200e9a:	fa07 f705 	lsl.w	r7, r7, r5
 1200e9e:	fa20 f101 	lsr.w	r1, r0, r1
 1200ea2:	431e      	orrs	r6, r3
 1200ea4:	ea4f 4916 	mov.w	r9, r6, lsr #16
 1200ea8:	fbb2 f8f9 	udiv	r8, r2, r9
 1200eac:	fa1f fa86 	uxth.w	sl, r6
 1200eb0:	fb09 2218 	mls	r2, r9, r8, r2
 1200eb4:	fb0a fb08 	mul.w	fp, sl, r8
 1200eb8:	430f      	orrs	r7, r1
 1200eba:	0c3b      	lsrs	r3, r7, #16
 1200ebc:	ea43 4202 	orr.w	r2, r3, r2, lsl #16
 1200ec0:	4593      	cmp	fp, r2
 1200ec2:	fa0c fc05 	lsl.w	ip, ip, r5
 1200ec6:	d908      	bls.n	1200eda <__divdi3+0x21e>
 1200ec8:	1992      	adds	r2, r2, r6
 1200eca:	f108 31ff 	add.w	r1, r8, #4294967295
 1200ece:	d24a      	bcs.n	1200f66 <__divdi3+0x2aa>
 1200ed0:	4593      	cmp	fp, r2
 1200ed2:	d948      	bls.n	1200f66 <__divdi3+0x2aa>
 1200ed4:	f1a8 0802 	sub.w	r8, r8, #2
 1200ed8:	1992      	adds	r2, r2, r6
 1200eda:	ebcb 0302 	rsb	r3, fp, r2
 1200ede:	fbb3 f1f9 	udiv	r1, r3, r9
 1200ee2:	fb09 3211 	mls	r2, r9, r1, r3
 1200ee6:	fb0a fa01 	mul.w	sl, sl, r1
 1200eea:	b2bf      	uxth	r7, r7
 1200eec:	ea47 4302 	orr.w	r3, r7, r2, lsl #16
 1200ef0:	459a      	cmp	sl, r3
 1200ef2:	d906      	bls.n	1200f02 <__divdi3+0x246>
 1200ef4:	1e4a      	subs	r2, r1, #1
 1200ef6:	199b      	adds	r3, r3, r6
 1200ef8:	d233      	bcs.n	1200f62 <__divdi3+0x2a6>
 1200efa:	459a      	cmp	sl, r3
 1200efc:	d931      	bls.n	1200f62 <__divdi3+0x2a6>
 1200efe:	3902      	subs	r1, #2
 1200f00:	199b      	adds	r3, r3, r6
 1200f02:	ea41 4108 	orr.w	r1, r1, r8, lsl #16
 1200f06:	0c0f      	lsrs	r7, r1, #16
 1200f08:	fa1f f88c 	uxth.w	r8, ip
 1200f0c:	fb08 f607 	mul.w	r6, r8, r7
 1200f10:	b28a      	uxth	r2, r1
 1200f12:	ea4f 4c1c 	mov.w	ip, ip, lsr #16
 1200f16:	fb08 f802 	mul.w	r8, r8, r2
 1200f1a:	fb0c 6202 	mla	r2, ip, r2, r6
 1200f1e:	fb0c fc07 	mul.w	ip, ip, r7
 1200f22:	eb02 4218 	add.w	r2, r2, r8, lsr #16
 1200f26:	4296      	cmp	r6, r2
 1200f28:	bf88      	it	hi
 1200f2a:	f50c 3c80 	addhi.w	ip, ip, #65536	; 0x10000
 1200f2e:	ebca 0303 	rsb	r3, sl, r3
 1200f32:	eb0c 4c12 	add.w	ip, ip, r2, lsr #16
 1200f36:	4563      	cmp	r3, ip
 1200f38:	d30e      	bcc.n	1200f58 <__divdi3+0x29c>
 1200f3a:	d005      	beq.n	1200f48 <__divdi3+0x28c>
 1200f3c:	2500      	movs	r5, #0
 1200f3e:	e70d      	b.n	1200d5c <__divdi3+0xa0>
 1200f40:	460e      	mov	r6, r1
 1200f42:	e6ef      	b.n	1200d24 <__divdi3+0x68>
 1200f44:	461d      	mov	r5, r3
 1200f46:	e701      	b.n	1200d4c <__divdi3+0x90>
 1200f48:	fa00 f005 	lsl.w	r0, r0, r5
 1200f4c:	fa1f f888 	uxth.w	r8, r8
 1200f50:	eb08 4502 	add.w	r5, r8, r2, lsl #16
 1200f54:	42a8      	cmp	r0, r5
 1200f56:	d2f1      	bcs.n	1200f3c <__divdi3+0x280>
 1200f58:	3901      	subs	r1, #1
 1200f5a:	2500      	movs	r5, #0
 1200f5c:	e6fe      	b.n	1200d5c <__divdi3+0xa0>
 1200f5e:	463d      	mov	r5, r7
 1200f60:	e78f      	b.n	1200e82 <__divdi3+0x1c6>
 1200f62:	4611      	mov	r1, r2
 1200f64:	e7cd      	b.n	1200f02 <__divdi3+0x246>
 1200f66:	4688      	mov	r8, r1
 1200f68:	e7b7      	b.n	1200eda <__divdi3+0x21e>
 1200f6a:	46b0      	mov	r8, r6
 1200f6c:	e775      	b.n	1200e5a <__divdi3+0x19e>
 1200f6e:	3f02      	subs	r7, #2
 1200f70:	18b6      	adds	r6, r6, r2
 1200f72:	e72a      	b.n	1200dca <__divdi3+0x10e>
 1200f74:	3902      	subs	r1, #2
 1200f76:	e73c      	b.n	1200df2 <__divdi3+0x136>

01200f78 <__udivdi3>:
 1200f78:	e92d 07f0 	stmdb	sp!, {r4, r5, r6, r7, r8, r9, sl}
 1200f7c:	4614      	mov	r4, r2
 1200f7e:	4605      	mov	r5, r0
 1200f80:	460e      	mov	r6, r1
 1200f82:	2b00      	cmp	r3, #0
 1200f84:	d13d      	bne.n	1201002 <__udivdi3+0x8a>
 1200f86:	428a      	cmp	r2, r1
 1200f88:	d949      	bls.n	120101e <__udivdi3+0xa6>
 1200f8a:	fab2 f782 	clz	r7, r2
 1200f8e:	b147      	cbz	r7, 1200fa2 <__udivdi3+0x2a>
 1200f90:	f1c7 0120 	rsb	r1, r7, #32
 1200f94:	fa20 f201 	lsr.w	r2, r0, r1
 1200f98:	fa06 f607 	lsl.w	r6, r6, r7
 1200f9c:	40bc      	lsls	r4, r7
 1200f9e:	40bd      	lsls	r5, r7
 1200fa0:	4316      	orrs	r6, r2
 1200fa2:	0c22      	lsrs	r2, r4, #16
 1200fa4:	fbb6 f0f2 	udiv	r0, r6, r2
 1200fa8:	b2a1      	uxth	r1, r4
 1200faa:	fb02 6610 	mls	r6, r2, r0, r6
 1200fae:	fb01 f300 	mul.w	r3, r1, r0
 1200fb2:	0c2f      	lsrs	r7, r5, #16
 1200fb4:	ea47 4606 	orr.w	r6, r7, r6, lsl #16
 1200fb8:	42b3      	cmp	r3, r6
 1200fba:	d908      	bls.n	1200fce <__udivdi3+0x56>
 1200fbc:	1e47      	subs	r7, r0, #1
 1200fbe:	1936      	adds	r6, r6, r4
 1200fc0:	f080 80fa 	bcs.w	12011b8 <__udivdi3+0x240>
 1200fc4:	42b3      	cmp	r3, r6
 1200fc6:	f240 80f7 	bls.w	12011b8 <__udivdi3+0x240>
 1200fca:	3802      	subs	r0, #2
 1200fcc:	1936      	adds	r6, r6, r4
 1200fce:	1af6      	subs	r6, r6, r3
 1200fd0:	fbb6 f3f2 	udiv	r3, r6, r2
 1200fd4:	fb02 6213 	mls	r2, r2, r3, r6
 1200fd8:	fb01 f103 	mul.w	r1, r1, r3
 1200fdc:	b2ad      	uxth	r5, r5
 1200fde:	ea45 4202 	orr.w	r2, r5, r2, lsl #16
 1200fe2:	4291      	cmp	r1, r2
 1200fe4:	d907      	bls.n	1200ff6 <__udivdi3+0x7e>
 1200fe6:	1e5e      	subs	r6, r3, #1
 1200fe8:	1912      	adds	r2, r2, r4
 1200fea:	f080 80e7 	bcs.w	12011bc <__udivdi3+0x244>
 1200fee:	4291      	cmp	r1, r2
 1200ff0:	f240 80e4 	bls.w	12011bc <__udivdi3+0x244>
 1200ff4:	3b02      	subs	r3, #2
 1200ff6:	ea43 4000 	orr.w	r0, r3, r0, lsl #16
 1200ffa:	2100      	movs	r1, #0
 1200ffc:	e8bd 07f0 	ldmia.w	sp!, {r4, r5, r6, r7, r8, r9, sl}
 1201000:	4770      	bx	lr
 1201002:	428b      	cmp	r3, r1
 1201004:	d843      	bhi.n	120108e <__udivdi3+0x116>
 1201006:	fab3 f483 	clz	r4, r3
 120100a:	2c00      	cmp	r4, #0
 120100c:	d142      	bne.n	1201094 <__udivdi3+0x11c>
 120100e:	428b      	cmp	r3, r1
 1201010:	d302      	bcc.n	1201018 <__udivdi3+0xa0>
 1201012:	4282      	cmp	r2, r0
 1201014:	f200 80e1 	bhi.w	12011da <__udivdi3+0x262>
 1201018:	2100      	movs	r1, #0
 120101a:	2001      	movs	r0, #1
 120101c:	e7ee      	b.n	1200ffc <__udivdi3+0x84>
 120101e:	b912      	cbnz	r2, 1201026 <__udivdi3+0xae>
 1201020:	2701      	movs	r7, #1
 1201022:	fbb7 f4f2 	udiv	r4, r7, r2
 1201026:	fab4 f284 	clz	r2, r4
 120102a:	2a00      	cmp	r2, #0
 120102c:	f040 8089 	bne.w	1201142 <__udivdi3+0x1ca>
 1201030:	1b0a      	subs	r2, r1, r4
 1201032:	0c23      	lsrs	r3, r4, #16
 1201034:	b2a7      	uxth	r7, r4
 1201036:	2101      	movs	r1, #1
 1201038:	fbb2 f6f3 	udiv	r6, r2, r3
 120103c:	fb03 2216 	mls	r2, r3, r6, r2
 1201040:	fb07 f006 	mul.w	r0, r7, r6
 1201044:	ea4f 4c15 	mov.w	ip, r5, lsr #16
 1201048:	ea4c 4202 	orr.w	r2, ip, r2, lsl #16
 120104c:	4290      	cmp	r0, r2
 120104e:	d907      	bls.n	1201060 <__udivdi3+0xe8>
 1201050:	1912      	adds	r2, r2, r4
 1201052:	f106 3cff 	add.w	ip, r6, #4294967295
 1201056:	d202      	bcs.n	120105e <__udivdi3+0xe6>
 1201058:	4290      	cmp	r0, r2
 120105a:	f200 80d0 	bhi.w	12011fe <__udivdi3+0x286>
 120105e:	4666      	mov	r6, ip
 1201060:	1a12      	subs	r2, r2, r0
 1201062:	fbb2 f0f3 	udiv	r0, r2, r3
 1201066:	fb03 2310 	mls	r3, r3, r0, r2
 120106a:	fb07 f700 	mul.w	r7, r7, r0
 120106e:	b2ad      	uxth	r5, r5
 1201070:	ea45 4303 	orr.w	r3, r5, r3, lsl #16
 1201074:	429f      	cmp	r7, r3
 1201076:	d907      	bls.n	1201088 <__udivdi3+0x110>
 1201078:	1e42      	subs	r2, r0, #1
 120107a:	191b      	adds	r3, r3, r4
 120107c:	f080 80a0 	bcs.w	12011c0 <__udivdi3+0x248>
 1201080:	429f      	cmp	r7, r3
 1201082:	f240 809d 	bls.w	12011c0 <__udivdi3+0x248>
 1201086:	3802      	subs	r0, #2
 1201088:	ea40 4006 	orr.w	r0, r0, r6, lsl #16
 120108c:	e7b6      	b.n	1200ffc <__udivdi3+0x84>
 120108e:	2100      	movs	r1, #0
 1201090:	4608      	mov	r0, r1
 1201092:	e7b3      	b.n	1200ffc <__udivdi3+0x84>
 1201094:	f1c4 0620 	rsb	r6, r4, #32
 1201098:	fa22 f706 	lsr.w	r7, r2, r6
 120109c:	fa03 f304 	lsl.w	r3, r3, r4
 12010a0:	fa21 f506 	lsr.w	r5, r1, r6
 12010a4:	fa01 f104 	lsl.w	r1, r1, r4
 12010a8:	fa20 f606 	lsr.w	r6, r0, r6
 12010ac:	433b      	orrs	r3, r7
 12010ae:	ea4f 4c13 	mov.w	ip, r3, lsr #16
 12010b2:	fbb5 f7fc 	udiv	r7, r5, ip
 12010b6:	fa1f f883 	uxth.w	r8, r3
 12010ba:	fb0c 5517 	mls	r5, ip, r7, r5
 12010be:	fb08 f907 	mul.w	r9, r8, r7
 12010c2:	ea46 0a01 	orr.w	sl, r6, r1
 12010c6:	ea4f 411a 	mov.w	r1, sl, lsr #16
 12010ca:	ea41 4505 	orr.w	r5, r1, r5, lsl #16
 12010ce:	45a9      	cmp	r9, r5
 12010d0:	fa02 f204 	lsl.w	r2, r2, r4
 12010d4:	d904      	bls.n	12010e0 <__udivdi3+0x168>
 12010d6:	1e7e      	subs	r6, r7, #1
 12010d8:	18ed      	adds	r5, r5, r3
 12010da:	f0c0 8081 	bcc.w	12011e0 <__udivdi3+0x268>
 12010de:	4637      	mov	r7, r6
 12010e0:	ebc9 0105 	rsb	r1, r9, r5
 12010e4:	fbb1 f6fc 	udiv	r6, r1, ip
 12010e8:	fb0c 1516 	mls	r5, ip, r6, r1
 12010ec:	fb08 f806 	mul.w	r8, r8, r6
 12010f0:	fa1f fa8a 	uxth.w	sl, sl
 12010f4:	ea4a 4105 	orr.w	r1, sl, r5, lsl #16
 12010f8:	4588      	cmp	r8, r1
 12010fa:	d903      	bls.n	1201104 <__udivdi3+0x18c>
 12010fc:	1e75      	subs	r5, r6, #1
 12010fe:	18c9      	adds	r1, r1, r3
 1201100:	d374      	bcc.n	12011ec <__udivdi3+0x274>
 1201102:	462e      	mov	r6, r5
 1201104:	ea46 4607 	orr.w	r6, r6, r7, lsl #16
 1201108:	0c37      	lsrs	r7, r6, #16
 120110a:	fa1f fc82 	uxth.w	ip, r2
 120110e:	fb0c f507 	mul.w	r5, ip, r7
 1201112:	0c12      	lsrs	r2, r2, #16
 1201114:	b2b3      	uxth	r3, r6
 1201116:	fb0c fc03 	mul.w	ip, ip, r3
 120111a:	fb02 5303 	mla	r3, r2, r3, r5
 120111e:	fb02 f207 	mul.w	r2, r2, r7
 1201122:	eb03 431c 	add.w	r3, r3, ip, lsr #16
 1201126:	429d      	cmp	r5, r3
 1201128:	bf88      	it	hi
 120112a:	f502 3280 	addhi.w	r2, r2, #65536	; 0x10000
 120112e:	ebc8 0101 	rsb	r1, r8, r1
 1201132:	eb02 4213 	add.w	r2, r2, r3, lsr #16
 1201136:	4291      	cmp	r1, r2
 1201138:	d34c      	bcc.n	12011d4 <__udivdi3+0x25c>
 120113a:	d043      	beq.n	12011c4 <__udivdi3+0x24c>
 120113c:	4630      	mov	r0, r6
 120113e:	2100      	movs	r1, #0
 1201140:	e75c      	b.n	1200ffc <__udivdi3+0x84>
 1201142:	4094      	lsls	r4, r2
 1201144:	f1c2 0520 	rsb	r5, r2, #32
 1201148:	fa21 f605 	lsr.w	r6, r1, r5
 120114c:	fa20 f505 	lsr.w	r5, r0, r5
 1201150:	fa01 f102 	lsl.w	r1, r1, r2
 1201154:	0c23      	lsrs	r3, r4, #16
 1201156:	fbb6 fcf3 	udiv	ip, r6, r3
 120115a:	b2a7      	uxth	r7, r4
 120115c:	fb03 661c 	mls	r6, r3, ip, r6
 1201160:	fb07 f80c 	mul.w	r8, r7, ip
 1201164:	4329      	orrs	r1, r5
 1201166:	0c0d      	lsrs	r5, r1, #16
 1201168:	ea45 4606 	orr.w	r6, r5, r6, lsl #16
 120116c:	45b0      	cmp	r8, r6
 120116e:	fa00 f502 	lsl.w	r5, r0, r2
 1201172:	d908      	bls.n	1201186 <__udivdi3+0x20e>
 1201174:	1936      	adds	r6, r6, r4
 1201176:	f10c 30ff 	add.w	r0, ip, #4294967295
 120117a:	d23e      	bcs.n	12011fa <__udivdi3+0x282>
 120117c:	45b0      	cmp	r8, r6
 120117e:	d93c      	bls.n	12011fa <__udivdi3+0x282>
 1201180:	f1ac 0c02 	sub.w	ip, ip, #2
 1201184:	1936      	adds	r6, r6, r4
 1201186:	ebc8 0206 	rsb	r2, r8, r6
 120118a:	fbb2 f0f3 	udiv	r0, r2, r3
 120118e:	fb03 2610 	mls	r6, r3, r0, r2
 1201192:	fb07 f800 	mul.w	r8, r7, r0
 1201196:	b289      	uxth	r1, r1
 1201198:	ea41 4206 	orr.w	r2, r1, r6, lsl #16
 120119c:	4590      	cmp	r8, r2
 120119e:	d906      	bls.n	12011ae <__udivdi3+0x236>
 12011a0:	1e46      	subs	r6, r0, #1
 12011a2:	1912      	adds	r2, r2, r4
 12011a4:	d227      	bcs.n	12011f6 <__udivdi3+0x27e>
 12011a6:	4590      	cmp	r8, r2
 12011a8:	d925      	bls.n	12011f6 <__udivdi3+0x27e>
 12011aa:	3802      	subs	r0, #2
 12011ac:	1912      	adds	r2, r2, r4
 12011ae:	ebc8 0202 	rsb	r2, r8, r2
 12011b2:	ea40 410c 	orr.w	r1, r0, ip, lsl #16
 12011b6:	e73f      	b.n	1201038 <__udivdi3+0xc0>
 12011b8:	4638      	mov	r0, r7
 12011ba:	e708      	b.n	1200fce <__udivdi3+0x56>
 12011bc:	4633      	mov	r3, r6
 12011be:	e71a      	b.n	1200ff6 <__udivdi3+0x7e>
 12011c0:	4610      	mov	r0, r2
 12011c2:	e761      	b.n	1201088 <__udivdi3+0x110>
 12011c4:	fa00 f004 	lsl.w	r0, r0, r4
 12011c8:	fa1f fc8c 	uxth.w	ip, ip
 12011cc:	eb0c 4303 	add.w	r3, ip, r3, lsl #16
 12011d0:	4298      	cmp	r0, r3
 12011d2:	d2b3      	bcs.n	120113c <__udivdi3+0x1c4>
 12011d4:	1e70      	subs	r0, r6, #1
 12011d6:	2100      	movs	r1, #0
 12011d8:	e710      	b.n	1200ffc <__udivdi3+0x84>
 12011da:	4621      	mov	r1, r4
 12011dc:	4620      	mov	r0, r4
 12011de:	e70d      	b.n	1200ffc <__udivdi3+0x84>
 12011e0:	45a9      	cmp	r9, r5
 12011e2:	f67f af7c 	bls.w	12010de <__udivdi3+0x166>
 12011e6:	3f02      	subs	r7, #2
 12011e8:	18ed      	adds	r5, r5, r3
 12011ea:	e779      	b.n	12010e0 <__udivdi3+0x168>
 12011ec:	4588      	cmp	r8, r1
 12011ee:	d988      	bls.n	1201102 <__udivdi3+0x18a>
 12011f0:	3e02      	subs	r6, #2
 12011f2:	18c9      	adds	r1, r1, r3
 12011f4:	e786      	b.n	1201104 <__udivdi3+0x18c>
 12011f6:	4630      	mov	r0, r6
 12011f8:	e7d9      	b.n	12011ae <__udivdi3+0x236>
 12011fa:	4684      	mov	ip, r0
 12011fc:	e7c3      	b.n	1201186 <__udivdi3+0x20e>
 12011fe:	3e02      	subs	r6, #2
 1201200:	1912      	adds	r2, r2, r4
 1201202:	e72d      	b.n	1201060 <__udivdi3+0xe8>
	...

01201220 <event_main>:
 1201220:	b508      	push	{r3, lr}
 1201222:	f000 f825 	bl	1201270 <SystemInit>
 1201226:	2000      	movs	r0, #0
 1201228:	bd08      	pop	{r3, pc}
	...

0120122c <main>:
 120122c:	b510      	push	{r4, lr}
 120122e:	4a0e      	ldr	r2, [pc, #56]	; (1201268 <main+0x3c>)
 1201230:	b08c      	sub	sp, #48	; 0x30
 1201232:	6810      	ldr	r0, [r2, #0]
 1201234:	6851      	ldr	r1, [r2, #4]
 1201236:	ab02      	add	r3, sp, #8
 1201238:	c303      	stmia	r3!, {r0, r1}
 120123a:	6890      	ldr	r0, [r2, #8]
 120123c:	2100      	movs	r1, #0
 120123e:	6018      	str	r0, [r3, #0]
 1201240:	221c      	movs	r2, #28
 1201242:	ac02      	add	r4, sp, #8
 1201244:	a805      	add	r0, sp, #20
 1201246:	f000 f957 	bl	12014f8 <memset>
 120124a:	4620      	mov	r0, r4
 120124c:	f000 f89a 	bl	1201384 <FileToApp>
 1201250:	9001      	str	r0, [sp, #4]
 1201252:	2000      	movs	r0, #0
 1201254:	4602      	mov	r2, r0
 1201256:	9400      	str	r4, [sp, #0]
 1201258:	2104      	movs	r1, #4
 120125a:	4b04      	ldr	r3, [pc, #16]	; (120126c <main+0x40>)
 120125c:	f000 f85c 	bl	1201318 <ScrPrint>
 1201260:	2000      	movs	r0, #0
 1201262:	b00c      	add	sp, #48	; 0x30
 1201264:	bd10      	pop	{r4, pc}
 1201266:	bf00      	nop
 1201268:	01206140 	teqeq	r0, r0, asr #2
 120126c:	01200204 	teqeq	r0, r4, lsl #4

01201270 <SystemInit>:
 1201270:	4b04      	ldr	r3, [pc, #16]	; (1201284 <SystemInit+0x14>)
 1201272:	2201      	movs	r2, #1
 1201274:	6818      	ldr	r0, [r3, #0]
 1201276:	210e      	movs	r1, #14
 1201278:	6002      	str	r2, [r0, #0]
 120127a:	6041      	str	r1, [r0, #4]
 120127c:	df01      	svc	1
 120127e:	f890 0020 	ldrb.w	r0, [r0, #32]
 1201282:	4770      	bx	lr
 1201284:	200ffdf4 	strdcs	pc, [pc], -r4

01201288 <CheckIfManageExist>:
 1201288:	4b04      	ldr	r3, [pc, #16]	; (120129c <CheckIfManageExist+0x14>)
 120128a:	220c      	movs	r2, #12
 120128c:	6818      	ldr	r0, [r3, #0]
 120128e:	210f      	movs	r1, #15
 1201290:	6002      	str	r2, [r0, #0]
 1201292:	6041      	str	r1, [r0, #4]
 1201294:	df01      	svc	1
 1201296:	f890 0020 	ldrb.w	r0, [r0, #32]
 120129a:	4770      	bx	lr
 120129c:	200ffdf4 	strdcs	pc, [pc], -r4

012012a0 <s_SystemInit>:
 12012a0:	4808      	ldr	r0, [pc, #32]	; (12012c4 <s_SystemInit+0x24>)
 12012a2:	4a09      	ldr	r2, [pc, #36]	; (12012c8 <s_SystemInit+0x28>)
 12012a4:	b508      	push	{r3, lr}
 12012a6:	4909      	ldr	r1, [pc, #36]	; (12012cc <s_SystemInit+0x2c>)
 12012a8:	1a12      	subs	r2, r2, r0
 12012aa:	f000 f877 	bl	120139c <memcpy>
 12012ae:	4b08      	ldr	r3, [pc, #32]	; (12012d0 <s_SystemInit+0x30>)
 12012b0:	4808      	ldr	r0, [pc, #32]	; (12012d4 <s_SystemInit+0x34>)
 12012b2:	2100      	movs	r1, #0
 12012b4:	1a1a      	subs	r2, r3, r0
 12012b6:	f000 f91f 	bl	12014f8 <memset>
 12012ba:	4807      	ldr	r0, [pc, #28]	; (12012d8 <s_SystemInit+0x38>)
 12012bc:	4907      	ldr	r1, [pc, #28]	; (12012dc <s_SystemInit+0x3c>)
 12012be:	6008      	str	r0, [r1, #0]
 12012c0:	2000      	movs	r0, #0
 12012c2:	bd08      	pop	{r3, pc}
 12012c4:	200ff540 	andcs	pc, pc, r0, asr #10
 12012c8:	200ffdb4 			; <UNDEFINED> instruction: 0x200ffdb4
 12012cc:	012061d4 	ldrdeq	r6, [r0, -r4]!
 12012d0:	200ffdfc 	strdcs	pc, [pc], -ip
 12012d4:	200ffdb4 			; <UNDEFINED> instruction: 0x200ffdb4
 12012d8:	200ffe00 	andcs	pc, pc, r0, lsl #28
 12012dc:	200ffdf4 	strdcs	pc, [pc], -r4

012012e0 <eventmain_entry>:
 12012e0:	b510      	push	{r4, lr}
 12012e2:	4604      	mov	r4, r0
 12012e4:	f7ff ffdc 	bl	12012a0 <s_SystemInit>
 12012e8:	4a03      	ldr	r2, [pc, #12]	; (12012f8 <eventmain_entry+0x18>)
 12012ea:	4b04      	ldr	r3, [pc, #16]	; (12012fc <eventmain_entry+0x1c>)
 12012ec:	4620      	mov	r0, r4
 12012ee:	601a      	str	r2, [r3, #0]
 12012f0:	e8bd 4010 	ldmia.w	sp!, {r4, lr}
 12012f4:	f7ff bf94 	b.w	1201220 <event_main>
 12012f8:	200ffe00 	andcs	pc, pc, r0, lsl #28
 12012fc:	200ffdf4 	strdcs	pc, [pc], -r4

01201300 <main_entry>:
 1201300:	b508      	push	{r3, lr}
 1201302:	f7ff ffcd 	bl	12012a0 <s_SystemInit>
 1201306:	f7ff ff91 	bl	120122c <main>
 120130a:	f7ff ffbd 	bl	1201288 <CheckIfManageExist>
 120130e:	2801      	cmp	r0, #1
 1201310:	d1f7      	bne.n	1201302 <main_entry+0x2>
 1201312:	2000      	movs	r0, #0
 1201314:	bd08      	pop	{r3, pc}
	...

01201318 <ScrPrint>:
 1201318:	b408      	push	{r3}
 120131a:	e92d 41f0 	stmdb	sp!, {r4, r5, r6, r7, r8, lr}
 120131e:	f2ad 4d0c 	subw	sp, sp, #1036	; 0x40c
 1201322:	f20d 4324 	addw	r3, sp, #1060	; 0x424
 1201326:	f853 4b04 	ldr.w	r4, [r3], #4
 120132a:	ad01      	add	r5, sp, #4
 120132c:	4680      	mov	r8, r0
 120132e:	460f      	mov	r7, r1
 1201330:	4616      	mov	r6, r2
 1201332:	f44f 6180 	mov.w	r1, #1024	; 0x400
 1201336:	4622      	mov	r2, r4
 1201338:	4628      	mov	r0, r5
 120133a:	9300      	str	r3, [sp, #0]
 120133c:	f000 f9ce 	bl	12016dc <vsnprintf>
 1201340:	2300      	movs	r3, #0
 1201342:	f1b0 3fff 	cmp.w	r0, #4294967295
 1201346:	bf08      	it	eq
 1201348:	f44f 6080 	moveq.w	r0, #1024	; 0x400
 120134c:	542b      	strb	r3, [r5, r0]
 120134e:	480c      	ldr	r0, [pc, #48]	; (1201380 <ScrPrint+0x68>)
 1201350:	2204      	movs	r2, #4
 1201352:	6801      	ldr	r1, [r0, #0]
 1201354:	2309      	movs	r3, #9
 1201356:	600a      	str	r2, [r1, #0]
 1201358:	604b      	str	r3, [r1, #4]
 120135a:	b10c      	cbz	r4, 1201360 <ScrPrint+0x48>
 120135c:	624d      	str	r5, [r1, #36]	; 0x24
 120135e:	e000      	b.n	1201362 <ScrPrint+0x4a>
 1201360:	624c      	str	r4, [r1, #36]	; 0x24
 1201362:	f881 8020 	strb.w	r8, [r1, #32]
 1201366:	f881 7021 	strb.w	r7, [r1, #33]	; 0x21
 120136a:	f881 6022 	strb.w	r6, [r1, #34]	; 0x22
 120136e:	df01      	svc	1
 1201370:	b003      	add	sp, #12
 1201372:	f50d 6d80 	add.w	sp, sp, #1024	; 0x400
 1201376:	e8bd 41f0 	ldmia.w	sp!, {r4, r5, r6, r7, r8, lr}
 120137a:	b001      	add	sp, #4
 120137c:	4770      	bx	lr
 120137e:	bf00      	nop
 1201380:	200ffdf4 	strdcs	pc, [pc], -r4

01201384 <FileToApp>:
 1201384:	4b04      	ldr	r3, [pc, #16]	; (1201398 <FileToApp+0x14>)
 1201386:	2208      	movs	r2, #8
 1201388:	6819      	ldr	r1, [r3, #0]
 120138a:	230d      	movs	r3, #13
 120138c:	600a      	str	r2, [r1, #0]
 120138e:	604b      	str	r3, [r1, #4]
 1201390:	6108      	str	r0, [r1, #16]
 1201392:	df01      	svc	1
 1201394:	6888      	ldr	r0, [r1, #8]
 1201396:	4770      	bx	lr
 1201398:	200ffdf4 	strdcs	pc, [pc], -r4

0120139c <memcpy>:
 120139c:	2a0f      	cmp	r2, #15
 120139e:	e92d 03f0 	stmdb	sp!, {r4, r5, r6, r7, r8, r9}
 12013a2:	f240 80a1 	bls.w	12014e8 <memcpy+0x14c>
 12013a6:	ea41 0300 	orr.w	r3, r1, r0
 12013aa:	079b      	lsls	r3, r3, #30
 12013ac:	f040 809e 	bne.w	12014ec <memcpy+0x150>
 12013b0:	680c      	ldr	r4, [r1, #0]
 12013b2:	f1a2 0510 	sub.w	r5, r2, #16
 12013b6:	6004      	str	r4, [r0, #0]
 12013b8:	684b      	ldr	r3, [r1, #4]
 12013ba:	46ac      	mov	ip, r5
 12013bc:	6043      	str	r3, [r0, #4]
 12013be:	688c      	ldr	r4, [r1, #8]
 12013c0:	f1bc 0f0f 	cmp.w	ip, #15
 12013c4:	6084      	str	r4, [r0, #8]
 12013c6:	68cc      	ldr	r4, [r1, #12]
 12013c8:	f3c5 1500 	ubfx	r5, r5, #4, #1
 12013cc:	60c4      	str	r4, [r0, #12]
 12013ce:	f100 0310 	add.w	r3, r0, #16
 12013d2:	f101 0410 	add.w	r4, r1, #16
 12013d6:	d92b      	bls.n	1201430 <memcpy+0x94>
 12013d8:	b175      	cbz	r5, 12013f8 <memcpy+0x5c>
 12013da:	6825      	ldr	r5, [r4, #0]
 12013dc:	f1ac 0c10 	sub.w	ip, ip, #16
 12013e0:	601d      	str	r5, [r3, #0]
 12013e2:	6865      	ldr	r5, [r4, #4]
 12013e4:	605d      	str	r5, [r3, #4]
 12013e6:	68a5      	ldr	r5, [r4, #8]
 12013e8:	609d      	str	r5, [r3, #8]
 12013ea:	68e5      	ldr	r5, [r4, #12]
 12013ec:	3410      	adds	r4, #16
 12013ee:	60dd      	str	r5, [r3, #12]
 12013f0:	3310      	adds	r3, #16
 12013f2:	f1bc 0f0f 	cmp.w	ip, #15
 12013f6:	d91b      	bls.n	1201430 <memcpy+0x94>
 12013f8:	6827      	ldr	r7, [r4, #0]
 12013fa:	f104 0610 	add.w	r6, r4, #16
 12013fe:	601f      	str	r7, [r3, #0]
 1201400:	6867      	ldr	r7, [r4, #4]
 1201402:	f103 0510 	add.w	r5, r3, #16
 1201406:	605f      	str	r7, [r3, #4]
 1201408:	68a7      	ldr	r7, [r4, #8]
 120140a:	f1ac 0c20 	sub.w	ip, ip, #32
 120140e:	609f      	str	r7, [r3, #8]
 1201410:	68e7      	ldr	r7, [r4, #12]
 1201412:	60df      	str	r7, [r3, #12]
 1201414:	6924      	ldr	r4, [r4, #16]
 1201416:	611c      	str	r4, [r3, #16]
 1201418:	6877      	ldr	r7, [r6, #4]
 120141a:	f106 0410 	add.w	r4, r6, #16
 120141e:	606f      	str	r7, [r5, #4]
 1201420:	68b7      	ldr	r7, [r6, #8]
 1201422:	3320      	adds	r3, #32
 1201424:	60af      	str	r7, [r5, #8]
 1201426:	68f6      	ldr	r6, [r6, #12]
 1201428:	f1bc 0f0f 	cmp.w	ip, #15
 120142c:	60ee      	str	r6, [r5, #12]
 120142e:	d8e3      	bhi.n	12013f8 <memcpy+0x5c>
 1201430:	f1a2 0810 	sub.w	r8, r2, #16
 1201434:	f028 030f 	bic.w	r3, r8, #15
 1201438:	f002 040f 	and.w	r4, r2, #15
 120143c:	f103 0c10 	add.w	ip, r3, #16
 1201440:	2c03      	cmp	r4, #3
 1201442:	eb00 030c 	add.w	r3, r0, ip
 1201446:	eb01 080c 	add.w	r8, r1, ip
 120144a:	d951      	bls.n	12014f0 <memcpy+0x154>
 120144c:	1f21      	subs	r1, r4, #4
 120144e:	ea4f 0991 	mov.w	r9, r1, lsr #2
 1201452:	4644      	mov	r4, r8
 1201454:	eb08 0c89 	add.w	ip, r8, r9, lsl #2
 1201458:	f854 6b04 	ldr.w	r6, [r4], #4
 120145c:	ebc8 010c 	rsb	r1, r8, ip
 1201460:	f10c 0c04 	add.w	ip, ip, #4
 1201464:	461d      	mov	r5, r3
 1201466:	4564      	cmp	r4, ip
 1201468:	f845 6b04 	str.w	r6, [r5], #4
 120146c:	f3c1 0180 	ubfx	r1, r1, #2, #1
 1201470:	d012      	beq.n	1201498 <memcpy+0xfc>
 1201472:	b129      	cbz	r1, 1201480 <memcpy+0xe4>
 1201474:	f854 1b04 	ldr.w	r1, [r4], #4
 1201478:	4564      	cmp	r4, ip
 120147a:	f845 1b04 	str.w	r1, [r5], #4
 120147e:	d00b      	beq.n	1201498 <memcpy+0xfc>
 1201480:	4627      	mov	r7, r4
 1201482:	f857 1b04 	ldr.w	r1, [r7], #4
 1201486:	462e      	mov	r6, r5
 1201488:	f846 1b04 	str.w	r1, [r6], #4
 120148c:	6864      	ldr	r4, [r4, #4]
 120148e:	606c      	str	r4, [r5, #4]
 1201490:	1d3c      	adds	r4, r7, #4
 1201492:	1d35      	adds	r5, r6, #4
 1201494:	4564      	cmp	r4, ip
 1201496:	d1f3      	bne.n	1201480 <memcpy+0xe4>
 1201498:	f109 0c01 	add.w	ip, r9, #1
 120149c:	ea4f 098c 	mov.w	r9, ip, lsl #2
 12014a0:	f002 0203 	and.w	r2, r2, #3
 12014a4:	eb08 0109 	add.w	r1, r8, r9
 12014a8:	444b      	add	r3, r9
 12014aa:	b1d2      	cbz	r2, 12014e2 <memcpy+0x146>
 12014ac:	780d      	ldrb	r5, [r1, #0]
 12014ae:	189a      	adds	r2, r3, r2
 12014b0:	43dc      	mvns	r4, r3
 12014b2:	f803 5b01 	strb.w	r5, [r3], #1
 12014b6:	1914      	adds	r4, r2, r4
 12014b8:	4293      	cmp	r3, r2
 12014ba:	f004 0401 	and.w	r4, r4, #1
 12014be:	d010      	beq.n	12014e2 <memcpy+0x146>
 12014c0:	b12c      	cbz	r4, 12014ce <memcpy+0x132>
 12014c2:	f811 4f01 	ldrb.w	r4, [r1, #1]!
 12014c6:	f803 4b01 	strb.w	r4, [r3], #1
 12014ca:	4293      	cmp	r3, r2
 12014cc:	d009      	beq.n	12014e2 <memcpy+0x146>
 12014ce:	784d      	ldrb	r5, [r1, #1]
 12014d0:	461c      	mov	r4, r3
 12014d2:	f804 5b01 	strb.w	r5, [r4], #1
 12014d6:	788d      	ldrb	r5, [r1, #2]
 12014d8:	3102      	adds	r1, #2
 12014da:	705d      	strb	r5, [r3, #1]
 12014dc:	1c63      	adds	r3, r4, #1
 12014de:	4293      	cmp	r3, r2
 12014e0:	d1f5      	bne.n	12014ce <memcpy+0x132>
 12014e2:	e8bd 03f0 	ldmia.w	sp!, {r4, r5, r6, r7, r8, r9}
 12014e6:	4770      	bx	lr
 12014e8:	4603      	mov	r3, r0
 12014ea:	e7de      	b.n	12014aa <memcpy+0x10e>
 12014ec:	4603      	mov	r3, r0
 12014ee:	e7dd      	b.n	12014ac <memcpy+0x110>
 12014f0:	4641      	mov	r1, r8
 12014f2:	4622      	mov	r2, r4
 12014f4:	e7d9      	b.n	12014aa <memcpy+0x10e>
 12014f6:	bf00      	nop

012014f8 <memset>:
 12014f8:	b4f0      	push	{r4, r5, r6, r7}
 12014fa:	0784      	lsls	r4, r0, #30
 12014fc:	4603      	mov	r3, r0
 12014fe:	f000 808d 	beq.w	120161c <memset+0x124>
 1201502:	1e54      	subs	r4, r2, #1
 1201504:	2a00      	cmp	r2, #0
 1201506:	f000 8087 	beq.w	1201618 <memset+0x120>
 120150a:	07e5      	lsls	r5, r4, #31
 120150c:	b2ce      	uxtb	r6, r1
 120150e:	d411      	bmi.n	1201534 <memset+0x3c>
 1201510:	461a      	mov	r2, r3
 1201512:	f802 6b01 	strb.w	r6, [r2], #1
 1201516:	4613      	mov	r3, r2
 1201518:	4615      	mov	r5, r2
 120151a:	0792      	lsls	r2, r2, #30
 120151c:	d010      	beq.n	1201540 <memset+0x48>
 120151e:	1e62      	subs	r2, r4, #1
 1201520:	2c00      	cmp	r4, #0
 1201522:	d079      	beq.n	1201618 <memset+0x120>
 1201524:	f803 6b01 	strb.w	r6, [r3], #1
 1201528:	4614      	mov	r4, r2
 120152a:	079a      	lsls	r2, r3, #30
 120152c:	461d      	mov	r5, r3
 120152e:	d007      	beq.n	1201540 <memset+0x48>
 1201530:	3c01      	subs	r4, #1
 1201532:	e7ed      	b.n	1201510 <memset+0x18>
 1201534:	4603      	mov	r3, r0
 1201536:	f803 6b01 	strb.w	r6, [r3], #1
 120153a:	079a      	lsls	r2, r3, #30
 120153c:	461d      	mov	r5, r3
 120153e:	d1f7      	bne.n	1201530 <memset+0x38>
 1201540:	2c03      	cmp	r4, #3
 1201542:	d952      	bls.n	12015ea <memset+0xf2>
 1201544:	b2ce      	uxtb	r6, r1
 1201546:	ea46 2706 	orr.w	r7, r6, r6, lsl #8
 120154a:	2c0f      	cmp	r4, #15
 120154c:	ea47 4307 	orr.w	r3, r7, r7, lsl #16
 1201550:	d92d      	bls.n	12015ae <memset+0xb6>
 1201552:	f1a4 0210 	sub.w	r2, r4, #16
 1201556:	4617      	mov	r7, r2
 1201558:	2f0f      	cmp	r7, #15
 120155a:	f3c2 1600 	ubfx	r6, r2, #4, #1
 120155e:	602b      	str	r3, [r5, #0]
 1201560:	606b      	str	r3, [r5, #4]
 1201562:	60ab      	str	r3, [r5, #8]
 1201564:	60eb      	str	r3, [r5, #12]
 1201566:	f105 0210 	add.w	r2, r5, #16
 120156a:	d916      	bls.n	120159a <memset+0xa2>
 120156c:	b13e      	cbz	r6, 120157e <memset+0x86>
 120156e:	3f10      	subs	r7, #16
 1201570:	6013      	str	r3, [r2, #0]
 1201572:	6053      	str	r3, [r2, #4]
 1201574:	6093      	str	r3, [r2, #8]
 1201576:	60d3      	str	r3, [r2, #12]
 1201578:	3210      	adds	r2, #16
 120157a:	2f0f      	cmp	r7, #15
 120157c:	d90d      	bls.n	120159a <memset+0xa2>
 120157e:	3f20      	subs	r7, #32
 1201580:	f102 0610 	add.w	r6, r2, #16
 1201584:	6013      	str	r3, [r2, #0]
 1201586:	6053      	str	r3, [r2, #4]
 1201588:	6093      	str	r3, [r2, #8]
 120158a:	60d3      	str	r3, [r2, #12]
 120158c:	6113      	str	r3, [r2, #16]
 120158e:	6153      	str	r3, [r2, #20]
 1201590:	6193      	str	r3, [r2, #24]
 1201592:	61d3      	str	r3, [r2, #28]
 1201594:	3220      	adds	r2, #32
 1201596:	2f0f      	cmp	r7, #15
 1201598:	d8f1      	bhi.n	120157e <memset+0x86>
 120159a:	f1a4 0210 	sub.w	r2, r4, #16
 120159e:	f022 020f 	bic.w	r2, r2, #15
 12015a2:	f004 040f 	and.w	r4, r4, #15
 12015a6:	3210      	adds	r2, #16
 12015a8:	2c03      	cmp	r4, #3
 12015aa:	4415      	add	r5, r2
 12015ac:	d91d      	bls.n	12015ea <memset+0xf2>
 12015ae:	1f27      	subs	r7, r4, #4
 12015b0:	463e      	mov	r6, r7
 12015b2:	462a      	mov	r2, r5
 12015b4:	2e03      	cmp	r6, #3
 12015b6:	f842 3b04 	str.w	r3, [r2], #4
 12015ba:	f3c7 0780 	ubfx	r7, r7, #2, #1
 12015be:	d90d      	bls.n	12015dc <memset+0xe4>
 12015c0:	b127      	cbz	r7, 12015cc <memset+0xd4>
 12015c2:	3e04      	subs	r6, #4
 12015c4:	2e03      	cmp	r6, #3
 12015c6:	f842 3b04 	str.w	r3, [r2], #4
 12015ca:	d907      	bls.n	12015dc <memset+0xe4>
 12015cc:	4617      	mov	r7, r2
 12015ce:	f847 3b04 	str.w	r3, [r7], #4
 12015d2:	3e08      	subs	r6, #8
 12015d4:	6053      	str	r3, [r2, #4]
 12015d6:	1d3a      	adds	r2, r7, #4
 12015d8:	2e03      	cmp	r6, #3
 12015da:	d8f7      	bhi.n	12015cc <memset+0xd4>
 12015dc:	1f23      	subs	r3, r4, #4
 12015de:	f023 0203 	bic.w	r2, r3, #3
 12015e2:	1d13      	adds	r3, r2, #4
 12015e4:	f004 0403 	and.w	r4, r4, #3
 12015e8:	18ed      	adds	r5, r5, r3
 12015ea:	b1ac      	cbz	r4, 1201618 <memset+0x120>
 12015ec:	b2c9      	uxtb	r1, r1
 12015ee:	43ea      	mvns	r2, r5
 12015f0:	192c      	adds	r4, r5, r4
 12015f2:	f805 1b01 	strb.w	r1, [r5], #1
 12015f6:	18a3      	adds	r3, r4, r2
 12015f8:	42a5      	cmp	r5, r4
 12015fa:	f003 0201 	and.w	r2, r3, #1
 12015fe:	d00b      	beq.n	1201618 <memset+0x120>
 1201600:	b11a      	cbz	r2, 120160a <memset+0x112>
 1201602:	f805 1b01 	strb.w	r1, [r5], #1
 1201606:	42a5      	cmp	r5, r4
 1201608:	d006      	beq.n	1201618 <memset+0x120>
 120160a:	462b      	mov	r3, r5
 120160c:	f803 1b01 	strb.w	r1, [r3], #1
 1201610:	7069      	strb	r1, [r5, #1]
 1201612:	1c5d      	adds	r5, r3, #1
 1201614:	42a5      	cmp	r5, r4
 1201616:	d1f8      	bne.n	120160a <memset+0x112>
 1201618:	bcf0      	pop	{r4, r5, r6, r7}
 120161a:	4770      	bx	lr
 120161c:	4605      	mov	r5, r0
 120161e:	4614      	mov	r4, r2
 1201620:	e78e      	b.n	1201540 <memset+0x48>
 1201622:	bf00      	nop

01201624 <strlen>:
 1201624:	f020 0103 	bic.w	r1, r0, #3
 1201628:	f010 0003 	ands.w	r0, r0, #3
 120162c:	f1c0 0000 	rsb	r0, r0, #0
 1201630:	f851 3b04 	ldr.w	r3, [r1], #4
 1201634:	f100 0c04 	add.w	ip, r0, #4
 1201638:	ea4f 0ccc 	mov.w	ip, ip, lsl #3
 120163c:	f06f 0200 	mvn.w	r2, #0
 1201640:	bf1c      	itt	ne
 1201642:	fa22 f20c 	lsrne.w	r2, r2, ip
 1201646:	4313      	orrne	r3, r2
 1201648:	f04f 0c01 	mov.w	ip, #1
 120164c:	ea4c 2c0c 	orr.w	ip, ip, ip, lsl #8
 1201650:	ea4c 4c0c 	orr.w	ip, ip, ip, lsl #16
 1201654:	eba3 020c 	sub.w	r2, r3, ip
 1201658:	ea22 0203 	bic.w	r2, r2, r3
 120165c:	ea12 12cc 	ands.w	r2, r2, ip, lsl #7
 1201660:	bf04      	itt	eq
 1201662:	f851 3b04 	ldreq.w	r3, [r1], #4
 1201666:	3004      	addeq	r0, #4
 1201668:	d0f4      	beq.n	1201654 <strlen+0x30>
 120166a:	f013 0fff 	tst.w	r3, #255	; 0xff
 120166e:	bf1f      	itttt	ne
 1201670:	3001      	addne	r0, #1
 1201672:	f413 4f7f 	tstne.w	r3, #65280	; 0xff00
 1201676:	3001      	addne	r0, #1
 1201678:	f413 0f7f 	tstne.w	r3, #16711680	; 0xff0000
 120167c:	bf18      	it	ne
 120167e:	3001      	addne	r0, #1
 1201680:	4770      	bx	lr
 1201682:	bf00      	nop

01201684 <_vsnprintf_r>:
 1201684:	b570      	push	{r4, r5, r6, lr}
 1201686:	1e14      	subs	r4, r2, #0
 1201688:	b09a      	sub	sp, #104	; 0x68
 120168a:	4606      	mov	r6, r0
 120168c:	db20      	blt.n	12016d0 <_vsnprintf_r+0x4c>
 120168e:	f44f 7202 	mov.w	r2, #520	; 0x208
 1201692:	f8ad 200c 	strh.w	r2, [sp, #12]
 1201696:	9100      	str	r1, [sp, #0]
 1201698:	9104      	str	r1, [sp, #16]
 120169a:	d114      	bne.n	12016c6 <_vsnprintf_r+0x42>
 120169c:	4625      	mov	r5, r4
 120169e:	461a      	mov	r2, r3
 12016a0:	9502      	str	r5, [sp, #8]
 12016a2:	9b1e      	ldr	r3, [sp, #120]	; 0x78
 12016a4:	9505      	str	r5, [sp, #20]
 12016a6:	4630      	mov	r0, r6
 12016a8:	4669      	mov	r1, sp
 12016aa:	f64f 75ff 	movw	r5, #65535	; 0xffff
 12016ae:	f8ad 500e 	strh.w	r5, [sp, #14]
 12016b2:	f000 f827 	bl	1201704 <_svfprintf_r>
 12016b6:	1c43      	adds	r3, r0, #1
 12016b8:	db07      	blt.n	12016ca <_vsnprintf_r+0x46>
 12016ba:	b114      	cbz	r4, 12016c2 <_vsnprintf_r+0x3e>
 12016bc:	9a00      	ldr	r2, [sp, #0]
 12016be:	2100      	movs	r1, #0
 12016c0:	7011      	strb	r1, [r2, #0]
 12016c2:	b01a      	add	sp, #104	; 0x68
 12016c4:	bd70      	pop	{r4, r5, r6, pc}
 12016c6:	1e65      	subs	r5, r4, #1
 12016c8:	e7e9      	b.n	120169e <_vsnprintf_r+0x1a>
 12016ca:	238b      	movs	r3, #139	; 0x8b
 12016cc:	6033      	str	r3, [r6, #0]
 12016ce:	e7f4      	b.n	12016ba <_vsnprintf_r+0x36>
 12016d0:	208b      	movs	r0, #139	; 0x8b
 12016d2:	6030      	str	r0, [r6, #0]
 12016d4:	f04f 30ff 	mov.w	r0, #4294967295
 12016d8:	e7f3      	b.n	12016c2 <_vsnprintf_r+0x3e>
 12016da:	bf00      	nop

012016dc <vsnprintf>:
 12016dc:	b5f0      	push	{r4, r5, r6, r7, lr}
 12016de:	f64f 1468 	movw	r4, #63848	; 0xf968
 12016e2:	f2c2 040f 	movt	r4, #8207	; 0x200f
 12016e6:	6827      	ldr	r7, [r4, #0]
 12016e8:	4606      	mov	r6, r0
 12016ea:	460d      	mov	r5, r1
 12016ec:	4614      	mov	r4, r2
 12016ee:	b083      	sub	sp, #12
 12016f0:	9300      	str	r3, [sp, #0]
 12016f2:	4638      	mov	r0, r7
 12016f4:	4631      	mov	r1, r6
 12016f6:	462a      	mov	r2, r5
 12016f8:	4623      	mov	r3, r4
 12016fa:	f7ff ffc3 	bl	1201684 <_vsnprintf_r>
 12016fe:	b003      	add	sp, #12
 1201700:	bdf0      	pop	{r4, r5, r6, r7, pc}
 1201702:	bf00      	nop

01201704 <_svfprintf_r>:
 1201704:	e92d 4ff0 	stmdb	sp!, {r4, r5, r6, r7, r8, r9, sl, fp, lr}
 1201708:	b0c3      	sub	sp, #268	; 0x10c
 120170a:	468b      	mov	fp, r1
 120170c:	9310      	str	r3, [sp, #64]	; 0x40
 120170e:	4614      	mov	r4, r2
 1201710:	900c      	str	r0, [sp, #48]	; 0x30
 1201712:	f002 ffd9 	bl	12046c8 <_localeconv_r>
 1201716:	6800      	ldr	r0, [r0, #0]
 1201718:	2600      	movs	r6, #0
 120171a:	2700      	movs	r7, #0
 120171c:	9014      	str	r0, [sp, #80]	; 0x50
 120171e:	e9cd 6716 	strd	r6, r7, [sp, #88]	; 0x58
 1201722:	f7ff ff7f 	bl	1201624 <strlen>
 1201726:	f8bb 300c 	ldrh.w	r3, [fp, #12]
 120172a:	9018      	str	r0, [sp, #96]	; 0x60
 120172c:	f003 0080 	and.w	r0, r3, #128	; 0x80
 1201730:	b201      	sxth	r1, r0
 1201732:	b121      	cbz	r1, 120173e <_svfprintf_r+0x3a>
 1201734:	f8db 2010 	ldr.w	r2, [fp, #16]
 1201738:	2a00      	cmp	r2, #0
 120173a:	f001 82ca 	beq.w	1202cd2 <_svfprintf_r+0x15ce>
 120173e:	2700      	movs	r7, #0
 1201740:	ae32      	add	r6, sp, #200	; 0xc8
 1201742:	f8df 9520 	ldr.w	r9, [pc, #1312]	; 1201c64 <_svfprintf_r+0x560>
 1201746:	9711      	str	r7, [sp, #68]	; 0x44
 1201748:	9608      	str	r6, [sp, #32]
 120174a:	9625      	str	r6, [sp, #148]	; 0x94
 120174c:	9727      	str	r7, [sp, #156]	; 0x9c
 120174e:	9726      	str	r7, [sp, #152]	; 0x98
 1201750:	46a2      	mov	sl, r4
 1201752:	9719      	str	r7, [sp, #100]	; 0x64
 1201754:	971a      	str	r7, [sp, #104]	; 0x68
 1201756:	970f      	str	r7, [sp, #60]	; 0x3c
 1201758:	f89a 4000 	ldrb.w	r4, [sl]
 120175c:	2c00      	cmp	r4, #0
 120175e:	f000 81a2 	beq.w	1201aa6 <_svfprintf_r+0x3a2>
 1201762:	2c25      	cmp	r4, #37	; 0x25
 1201764:	f000 819f 	beq.w	1201aa6 <_svfprintf_r+0x3a2>
 1201768:	f10a 0301 	add.w	r3, sl, #1
 120176c:	e001      	b.n	1201772 <_svfprintf_r+0x6e>
 120176e:	2d25      	cmp	r5, #37	; 0x25
 1201770:	d004      	beq.n	120177c <_svfprintf_r+0x78>
 1201772:	781d      	ldrb	r5, [r3, #0]
 1201774:	461c      	mov	r4, r3
 1201776:	3301      	adds	r3, #1
 1201778:	2d00      	cmp	r5, #0
 120177a:	d1f8      	bne.n	120176e <_svfprintf_r+0x6a>
 120177c:	ebca 0504 	rsb	r5, sl, r4
 1201780:	b17d      	cbz	r5, 12017a2 <_svfprintf_r+0x9e>
 1201782:	9a26      	ldr	r2, [sp, #152]	; 0x98
 1201784:	9827      	ldr	r0, [sp, #156]	; 0x9c
 1201786:	1c53      	adds	r3, r2, #1
 1201788:	1941      	adds	r1, r0, r5
 120178a:	2b07      	cmp	r3, #7
 120178c:	f8c6 a000 	str.w	sl, [r6]
 1201790:	6075      	str	r5, [r6, #4]
 1201792:	9127      	str	r1, [sp, #156]	; 0x9c
 1201794:	9326      	str	r3, [sp, #152]	; 0x98
 1201796:	f300 8169 	bgt.w	1201a6c <_svfprintf_r+0x368>
 120179a:	3608      	adds	r6, #8
 120179c:	9f0f      	ldr	r7, [sp, #60]	; 0x3c
 120179e:	197f      	adds	r7, r7, r5
 12017a0:	970f      	str	r7, [sp, #60]	; 0x3c
 12017a2:	7820      	ldrb	r0, [r4, #0]
 12017a4:	2800      	cmp	r0, #0
 12017a6:	f000 8169 	beq.w	1201a7c <_svfprintf_r+0x378>
 12017aa:	2100      	movs	r1, #0
 12017ac:	f104 0a01 	add.w	sl, r4, #1
 12017b0:	f894 8001 	ldrb.w	r8, [r4, #1]
 12017b4:	f04f 34ff 	mov.w	r4, #4294967295
 12017b8:	910d      	str	r1, [sp, #52]	; 0x34
 12017ba:	f88d 1073 	strb.w	r1, [sp, #115]	; 0x73
 12017be:	9109      	str	r1, [sp, #36]	; 0x24
 12017c0:	940a      	str	r4, [sp, #40]	; 0x28
 12017c2:	2020      	movs	r0, #32
 12017c4:	212b      	movs	r1, #43	; 0x2b
 12017c6:	f10a 0a01 	add.w	sl, sl, #1
 12017ca:	f1a8 0220 	sub.w	r2, r8, #32
 12017ce:	2a58      	cmp	r2, #88	; 0x58
 12017d0:	f200 825d 	bhi.w	1201c8e <_svfprintf_r+0x58a>
 12017d4:	e8df f012 	tbh	[pc, r2, lsl #1]
 12017d8:	025b0274 	subseq	r0, fp, #1073741831	; 0x40000007
 12017dc:	027e025b 	rsbseq	r0, lr, #-1342177275	; 0xb0000005
 12017e0:	025b025b 	subseq	r0, fp, #-1342177275	; 0xb0000005
 12017e4:	025b025b 	subseq	r0, fp, #-1342177275	; 0xb0000005
 12017e8:	025b025b 	subseq	r0, fp, #-1342177275	; 0xb0000005
 12017ec:	01c501b9 	strheq	r0, [r5, #25]
 12017f0:	0143025b 	cmpeq	r3, fp, asr r2
 12017f4:	025b01ca 	subseq	r0, fp, #-2147483598	; 0x80000032
 12017f8:	028c0285 	addeq	r0, ip, #1342177288	; 0x50000008
 12017fc:	028c028c 	addeq	r0, ip, #-1073741816	; 0xc0000008
 1201800:	028c028c 	addeq	r0, ip, #-1073741816	; 0xc0000008
 1201804:	028c028c 	addeq	r0, ip, #-1073741816	; 0xc0000008
 1201808:	028c028c 	addeq	r0, ip, #-1073741816	; 0xc0000008
 120180c:	025b025b 	subseq	r0, fp, #-1342177275	; 0xb0000005
 1201810:	025b025b 	subseq	r0, fp, #-1342177275	; 0xb0000005
 1201814:	025b025b 	subseq	r0, fp, #-1342177275	; 0xb0000005
 1201818:	025b025b 	subseq	r0, fp, #-1342177275	; 0xb0000005
 120181c:	025b025b 	subseq	r0, fp, #-1342177275	; 0xb0000005
 1201820:	01880087 	orreq	r0, r8, r7, lsl #1
 1201824:	0188025b 	orreq	r0, r8, fp, asr r2
 1201828:	025b025b 	subseq	r0, fp, #-1342177275	; 0xb0000005
 120182c:	025b025b 	subseq	r0, fp, #-1342177275	; 0xb0000005
 1201830:	025b01f8 	subseq	r0, fp, #62	; 0x3e
 1201834:	006d025b 	rsbeq	r0, sp, fp, asr r2
 1201838:	025b025b 	subseq	r0, fp, #-1342177275	; 0xb0000005
 120183c:	025b025b 	subseq	r0, fp, #-1342177275	; 0xb0000005
 1201840:	0059025b 	subseq	r0, r9, fp, asr r2
 1201844:	025b025b 	subseq	r0, fp, #-1342177275	; 0xb0000005
 1201848:	025b01ff 	subseq	r0, fp, #-1073741761	; 0xc000003f
 120184c:	025b025b 	subseq	r0, fp, #-1342177275	; 0xb0000005
 1201850:	025b025b 	subseq	r0, fp, #-1342177275	; 0xb0000005
 1201854:	025b025b 	subseq	r0, fp, #-1342177275	; 0xb0000005
 1201858:	025b025b 	subseq	r0, fp, #-1342177275	; 0xb0000005
 120185c:	01e6025b 	mvneq	r0, fp, asr r2
 1201860:	0188008b 	orreq	r0, r8, fp, lsl #1
 1201864:	01880188 	orreq	r0, r8, r8, lsl #3
 1201868:	008b02aa 	addeq	r0, fp, sl, lsr #5
 120186c:	025b025b 	subseq	r0, fp, #-1342177275	; 0xb0000005
 1201870:	025b02d7 	subseq	r0, fp, #1879048205	; 0x7000000d
 1201874:	0071029d 			; <UNDEFINED> instruction: 0x0071029d
 1201878:	0234021f 	eorseq	r0, r4, #-268435455	; 0xf0000001
 120187c:	02b1025b 	adcseq	r0, r1, #-1342177275	; 0xb0000005
 1201880:	005d025b 	subseq	r0, sp, fp, asr r2
 1201884:	025b025b 	subseq	r0, fp, #-1342177275	; 0xb0000005
 1201888:	9d090248 	sfmls	f0, 4, [r9, #-288]	; 0xfffffee0
 120188c:	f045 0210 	orr.w	r2, r5, #16
 1201890:	9209      	str	r2, [sp, #36]	; 0x24
 1201892:	9b09      	ldr	r3, [sp, #36]	; 0x24
 1201894:	0699      	lsls	r1, r3, #26
 1201896:	f100 8208 	bmi.w	1201caa <_svfprintf_r+0x5a6>
 120189a:	9c09      	ldr	r4, [sp, #36]	; 0x24
 120189c:	06e2      	lsls	r2, r4, #27
 120189e:	f141 8091 	bpl.w	12029c4 <_svfprintf_r+0x12c0>
 12018a2:	9f10      	ldr	r7, [sp, #64]	; 0x40
 12018a4:	683d      	ldr	r5, [r7, #0]
 12018a6:	1d3b      	adds	r3, r7, #4
 12018a8:	9310      	str	r3, [sp, #64]	; 0x40
 12018aa:	462c      	mov	r4, r5
 12018ac:	2301      	movs	r3, #1
 12018ae:	2500      	movs	r5, #0
 12018b0:	e116      	b.n	1201ae0 <_svfprintf_r+0x3dc>
 12018b2:	9a09      	ldr	r2, [sp, #36]	; 0x24
 12018b4:	f042 0110 	orr.w	r1, r2, #16
 12018b8:	9109      	str	r1, [sp, #36]	; 0x24
 12018ba:	9b09      	ldr	r3, [sp, #36]	; 0x24
 12018bc:	f013 0320 	ands.w	r3, r3, #32
 12018c0:	f040 8104 	bne.w	1201acc <_svfprintf_r+0x3c8>
 12018c4:	9c09      	ldr	r4, [sp, #36]	; 0x24
 12018c6:	f014 0010 	ands.w	r0, r4, #16
 12018ca:	f040 8761 	bne.w	1202790 <_svfprintf_r+0x108c>
 12018ce:	9d09      	ldr	r5, [sp, #36]	; 0x24
 12018d0:	f015 0340 	ands.w	r3, r5, #64	; 0x40
 12018d4:	f000 875c 	beq.w	1202790 <_svfprintf_r+0x108c>
 12018d8:	9f10      	ldr	r7, [sp, #64]	; 0x40
 12018da:	4603      	mov	r3, r0
 12018dc:	1d3a      	adds	r2, r7, #4
 12018de:	883c      	ldrh	r4, [r7, #0]
 12018e0:	2500      	movs	r5, #0
 12018e2:	9210      	str	r2, [sp, #64]	; 0x40
 12018e4:	e0fc      	b.n	1201ae0 <_svfprintf_r+0x3dc>
 12018e6:	9d09      	ldr	r5, [sp, #36]	; 0x24
 12018e8:	f045 0310 	orr.w	r3, r5, #16
 12018ec:	9309      	str	r3, [sp, #36]	; 0x24
 12018ee:	9f09      	ldr	r7, [sp, #36]	; 0x24
 12018f0:	06bf      	lsls	r7, r7, #26
 12018f2:	f140 80da 	bpl.w	1201aaa <_svfprintf_r+0x3a6>
 12018f6:	9c10      	ldr	r4, [sp, #64]	; 0x40
 12018f8:	1de0      	adds	r0, r4, #7
 12018fa:	f020 0507 	bic.w	r5, r0, #7
 12018fe:	e9d5 2300 	ldrd	r2, r3, [r5]
 1201902:	3508      	adds	r5, #8
 1201904:	9510      	str	r5, [sp, #64]	; 0x40
 1201906:	4614      	mov	r4, r2
 1201908:	461d      	mov	r5, r3
 120190a:	2a00      	cmp	r2, #0
 120190c:	f173 0000 	sbcs.w	r0, r3, #0
 1201910:	f2c0 8735 	blt.w	120277e <_svfprintf_r+0x107a>
 1201914:	2301      	movs	r3, #1
 1201916:	9f0a      	ldr	r7, [sp, #40]	; 0x28
 1201918:	2f00      	cmp	r7, #0
 120191a:	db03      	blt.n	1201924 <_svfprintf_r+0x220>
 120191c:	9909      	ldr	r1, [sp, #36]	; 0x24
 120191e:	f021 0080 	bic.w	r0, r1, #128	; 0x80
 1201922:	9009      	str	r0, [sp, #36]	; 0x24
 1201924:	ea54 0005 	orrs.w	r0, r4, r5
 1201928:	f040 83ef 	bne.w	120210a <_svfprintf_r+0xa06>
 120192c:	9a0a      	ldr	r2, [sp, #40]	; 0x28
 120192e:	2a00      	cmp	r2, #0
 1201930:	f040 83eb 	bne.w	120210a <_svfprintf_r+0xa06>
 1201934:	2b00      	cmp	r3, #0
 1201936:	f040 8658 	bne.w	12025ea <_svfprintf_r+0xee6>
 120193a:	9b09      	ldr	r3, [sp, #36]	; 0x24
 120193c:	07da      	lsls	r2, r3, #31
 120193e:	f141 8017 	bpl.w	1202970 <_svfprintf_r+0x126c>
 1201942:	af42      	add	r7, sp, #264	; 0x108
 1201944:	2130      	movs	r1, #48	; 0x30
 1201946:	9808      	ldr	r0, [sp, #32]
 1201948:	f807 1d41 	strb.w	r1, [r7, #-65]!
 120194c:	1bc2      	subs	r2, r0, r7
 120194e:	920e      	str	r2, [sp, #56]	; 0x38
 1201950:	990a      	ldr	r1, [sp, #40]	; 0x28
 1201952:	980e      	ldr	r0, [sp, #56]	; 0x38
 1201954:	2400      	movs	r4, #0
 1201956:	4288      	cmp	r0, r1
 1201958:	bfb8      	it	lt
 120195a:	4608      	movlt	r0, r1
 120195c:	f89d 3073 	ldrb.w	r3, [sp, #115]	; 0x73
 1201960:	900b      	str	r0, [sp, #44]	; 0x2c
 1201962:	9112      	str	r1, [sp, #72]	; 0x48
 1201964:	9415      	str	r4, [sp, #84]	; 0x54
 1201966:	b113      	cbz	r3, 120196e <_svfprintf_r+0x26a>
 1201968:	9b0b      	ldr	r3, [sp, #44]	; 0x2c
 120196a:	1c5a      	adds	r2, r3, #1
 120196c:	920b      	str	r2, [sp, #44]	; 0x2c
 120196e:	9809      	ldr	r0, [sp, #36]	; 0x24
 1201970:	f010 0102 	ands.w	r1, r0, #2
 1201974:	910a      	str	r1, [sp, #40]	; 0x28
 1201976:	d002      	beq.n	120197e <_svfprintf_r+0x27a>
 1201978:	9a0b      	ldr	r2, [sp, #44]	; 0x2c
 120197a:	1c94      	adds	r4, r2, #2
 120197c:	940b      	str	r4, [sp, #44]	; 0x2c
 120197e:	9b09      	ldr	r3, [sp, #36]	; 0x24
 1201980:	f013 0084 	ands.w	r0, r3, #132	; 0x84
 1201984:	9013      	str	r0, [sp, #76]	; 0x4c
 1201986:	f040 8228 	bne.w	1201dda <_svfprintf_r+0x6d6>
 120198a:	9d0d      	ldr	r5, [sp, #52]	; 0x34
 120198c:	990b      	ldr	r1, [sp, #44]	; 0x2c
 120198e:	1a6d      	subs	r5, r5, r1
 1201990:	2d00      	cmp	r5, #0
 1201992:	f340 8222 	ble.w	1201dda <_svfprintf_r+0x6d6>
 1201996:	2d10      	cmp	r5, #16
 1201998:	f341 8214 	ble.w	1202dc4 <_svfprintf_r+0x16c0>
 120199c:	9a27      	ldr	r2, [sp, #156]	; 0x9c
 120199e:	9b26      	ldr	r3, [sp, #152]	; 0x98
 12019a0:	f240 2028 	movw	r0, #552	; 0x228
 12019a4:	2410      	movs	r4, #16
 12019a6:	f2c0 1020 	movt	r0, #288	; 0x120
 12019aa:	e886 0011 	stmia.w	r6, {r0, r4}
 12019ae:	1911      	adds	r1, r2, r4
 12019b0:	48a7      	ldr	r0, [pc, #668]	; (1201c50 <_svfprintf_r+0x54c>)
 12019b2:	1c5a      	adds	r2, r3, #1
 12019b4:	f1a5 0e11 	sub.w	lr, r5, #17
 12019b8:	2a07      	cmp	r2, #7
 12019ba:	901b      	str	r0, [sp, #108]	; 0x6c
 12019bc:	9127      	str	r1, [sp, #156]	; 0x9c
 12019be:	9226      	str	r2, [sp, #152]	; 0x98
 12019c0:	f3ce 1300 	ubfx	r3, lr, #4, #1
 12019c4:	f300 856c 	bgt.w	12024a0 <_svfprintf_r+0xd9c>
 12019c8:	3608      	adds	r6, #8
 12019ca:	3d10      	subs	r5, #16
 12019cc:	2d10      	cmp	r5, #16
 12019ce:	f340 81f8 	ble.w	1201dc2 <_svfprintf_r+0x6be>
 12019d2:	b18b      	cbz	r3, 12019f8 <_svfprintf_r+0x2f4>
 12019d4:	3201      	adds	r2, #1
 12019d6:	f240 2328 	movw	r3, #552	; 0x228
 12019da:	3110      	adds	r1, #16
 12019dc:	f2c0 1320 	movt	r3, #288	; 0x120
 12019e0:	2a07      	cmp	r2, #7
 12019e2:	e886 0018 	stmia.w	r6, {r3, r4}
 12019e6:	9127      	str	r1, [sp, #156]	; 0x9c
 12019e8:	9226      	str	r2, [sp, #152]	; 0x98
 12019ea:	f300 8568 	bgt.w	12024be <_svfprintf_r+0xdba>
 12019ee:	3608      	adds	r6, #8
 12019f0:	3d10      	subs	r5, #16
 12019f2:	2d10      	cmp	r5, #16
 12019f4:	f340 81e5 	ble.w	1201dc2 <_svfprintf_r+0x6be>
 12019f8:	4633      	mov	r3, r6
 12019fa:	462e      	mov	r6, r5
 12019fc:	463d      	mov	r5, r7
 12019fe:	9f0c      	ldr	r7, [sp, #48]	; 0x30
 1201a00:	e013      	b.n	1201a2a <_svfprintf_r+0x326>
 1201a02:	3308      	adds	r3, #8
 1201a04:	3201      	adds	r2, #1
 1201a06:	f240 2028 	movw	r0, #552	; 0x228
 1201a0a:	3110      	adds	r1, #16
 1201a0c:	f2c0 1020 	movt	r0, #288	; 0x120
 1201a10:	3e10      	subs	r6, #16
 1201a12:	2a07      	cmp	r2, #7
 1201a14:	e883 0011 	stmia.w	r3, {r0, r4}
 1201a18:	9127      	str	r1, [sp, #156]	; 0x9c
 1201a1a:	9226      	str	r2, [sp, #152]	; 0x98
 1201a1c:	f300 81bf 	bgt.w	1201d9e <_svfprintf_r+0x69a>
 1201a20:	3e10      	subs	r6, #16
 1201a22:	3308      	adds	r3, #8
 1201a24:	2e10      	cmp	r6, #16
 1201a26:	f340 81c9 	ble.w	1201dbc <_svfprintf_r+0x6b8>
 1201a2a:	3201      	adds	r2, #1
 1201a2c:	f240 2028 	movw	r0, #552	; 0x228
 1201a30:	3110      	adds	r1, #16
 1201a32:	f2c0 1020 	movt	r0, #288	; 0x120
 1201a36:	2a07      	cmp	r2, #7
 1201a38:	e883 0011 	stmia.w	r3, {r0, r4}
 1201a3c:	9127      	str	r1, [sp, #156]	; 0x9c
 1201a3e:	9226      	str	r2, [sp, #152]	; 0x98
 1201a40:	dddf      	ble.n	1201a02 <_svfprintf_r+0x2fe>
 1201a42:	4638      	mov	r0, r7
 1201a44:	4659      	mov	r1, fp
 1201a46:	aa25      	add	r2, sp, #148	; 0x94
 1201a48:	f003 fecc 	bl	12057e4 <__ssprint_r>
 1201a4c:	b9e8      	cbnz	r0, 1201a8a <_svfprintf_r+0x386>
 1201a4e:	9927      	ldr	r1, [sp, #156]	; 0x9c
 1201a50:	9a26      	ldr	r2, [sp, #152]	; 0x98
 1201a52:	ab32      	add	r3, sp, #200	; 0xc8
 1201a54:	e7d6      	b.n	1201a04 <_svfprintf_r+0x300>
 1201a56:	9c0d      	ldr	r4, [sp, #52]	; 0x34
 1201a58:	9210      	str	r2, [sp, #64]	; 0x40
 1201a5a:	4267      	negs	r7, r4
 1201a5c:	970d      	str	r7, [sp, #52]	; 0x34
 1201a5e:	9b09      	ldr	r3, [sp, #36]	; 0x24
 1201a60:	f043 0204 	orr.w	r2, r3, #4
 1201a64:	9209      	str	r2, [sp, #36]	; 0x24
 1201a66:	f89a 8000 	ldrb.w	r8, [sl]
 1201a6a:	e6ac      	b.n	12017c6 <_svfprintf_r+0xc2>
 1201a6c:	980c      	ldr	r0, [sp, #48]	; 0x30
 1201a6e:	4659      	mov	r1, fp
 1201a70:	aa25      	add	r2, sp, #148	; 0x94
 1201a72:	f003 feb7 	bl	12057e4 <__ssprint_r>
 1201a76:	b940      	cbnz	r0, 1201a8a <_svfprintf_r+0x386>
 1201a78:	ae32      	add	r6, sp, #200	; 0xc8
 1201a7a:	e68f      	b.n	120179c <_svfprintf_r+0x98>
 1201a7c:	9c27      	ldr	r4, [sp, #156]	; 0x9c
 1201a7e:	b124      	cbz	r4, 1201a8a <_svfprintf_r+0x386>
 1201a80:	980c      	ldr	r0, [sp, #48]	; 0x30
 1201a82:	4659      	mov	r1, fp
 1201a84:	aa25      	add	r2, sp, #148	; 0x94
 1201a86:	f003 fead 	bl	12057e4 <__ssprint_r>
 1201a8a:	f8bb 100c 	ldrh.w	r1, [fp, #12]
 1201a8e:	9c0f      	ldr	r4, [sp, #60]	; 0x3c
 1201a90:	f001 0340 	and.w	r3, r1, #64	; 0x40
 1201a94:	b21a      	sxth	r2, r3
 1201a96:	2a00      	cmp	r2, #0
 1201a98:	bf18      	it	ne
 1201a9a:	f04f 34ff 	movne.w	r4, #4294967295
 1201a9e:	4620      	mov	r0, r4
 1201aa0:	b043      	add	sp, #268	; 0x10c
 1201aa2:	e8bd 8ff0 	ldmia.w	sp!, {r4, r5, r6, r7, r8, r9, sl, fp, pc}
 1201aa6:	4654      	mov	r4, sl
 1201aa8:	e67b      	b.n	12017a2 <_svfprintf_r+0x9e>
 1201aaa:	9909      	ldr	r1, [sp, #36]	; 0x24
 1201aac:	06cd      	lsls	r5, r1, #27
 1201aae:	f100 8659 	bmi.w	1202764 <_svfprintf_r+0x1060>
 1201ab2:	9c09      	ldr	r4, [sp, #36]	; 0x24
 1201ab4:	0664      	lsls	r4, r4, #25
 1201ab6:	f140 8655 	bpl.w	1202764 <_svfprintf_r+0x1060>
 1201aba:	9810      	ldr	r0, [sp, #64]	; 0x40
 1201abc:	f9b0 4000 	ldrsh.w	r4, [r0]
 1201ac0:	1d02      	adds	r2, r0, #4
 1201ac2:	17e5      	asrs	r5, r4, #31
 1201ac4:	9210      	str	r2, [sp, #64]	; 0x40
 1201ac6:	462b      	mov	r3, r5
 1201ac8:	4622      	mov	r2, r4
 1201aca:	e71e      	b.n	120190a <_svfprintf_r+0x206>
 1201acc:	9b10      	ldr	r3, [sp, #64]	; 0x40
 1201ace:	1ddf      	adds	r7, r3, #7
 1201ad0:	f027 0207 	bic.w	r2, r7, #7
 1201ad4:	f102 0108 	add.w	r1, r2, #8
 1201ad8:	9110      	str	r1, [sp, #64]	; 0x40
 1201ada:	2300      	movs	r3, #0
 1201adc:	e9d2 4500 	ldrd	r4, r5, [r2]
 1201ae0:	2000      	movs	r0, #0
 1201ae2:	f88d 0073 	strb.w	r0, [sp, #115]	; 0x73
 1201ae6:	e716      	b.n	1201916 <_svfprintf_r+0x212>
 1201ae8:	9d10      	ldr	r5, [sp, #64]	; 0x40
 1201aea:	1def      	adds	r7, r5, #7
 1201aec:	f027 0107 	bic.w	r1, r7, #7
 1201af0:	680d      	ldr	r5, [r1, #0]
 1201af2:	684c      	ldr	r4, [r1, #4]
 1201af4:	3108      	adds	r1, #8
 1201af6:	9110      	str	r1, [sp, #64]	; 0x40
 1201af8:	4628      	mov	r0, r5
 1201afa:	4621      	mov	r1, r4
 1201afc:	e9cd 0116 	strd	r0, r1, [sp, #88]	; 0x58
 1201b00:	4621      	mov	r1, r4
 1201b02:	4628      	mov	r0, r5
 1201b04:	f003 fe28 	bl	1205758 <__fpclassifyd>
 1201b08:	2801      	cmp	r0, #1
 1201b0a:	4621      	mov	r1, r4
 1201b0c:	4628      	mov	r0, r5
 1201b0e:	f040 8740 	bne.w	1202992 <_svfprintf_r+0x128e>
 1201b12:	2200      	movs	r2, #0
 1201b14:	2300      	movs	r3, #0
 1201b16:	f7ff f839 	bl	1200b8c <__aeabi_dcmplt>
 1201b1a:	2800      	cmp	r0, #0
 1201b1c:	f041 81f8 	bne.w	1202f10 <_svfprintf_r+0x180c>
 1201b20:	f89d 3073 	ldrb.w	r3, [sp, #115]	; 0x73
 1201b24:	2700      	movs	r7, #0
 1201b26:	4a4b      	ldr	r2, [pc, #300]	; (1201c54 <_svfprintf_r+0x550>)
 1201b28:	9909      	ldr	r1, [sp, #36]	; 0x24
 1201b2a:	9712      	str	r7, [sp, #72]	; 0x48
 1201b2c:	4f4a      	ldr	r7, [pc, #296]	; (1201c58 <_svfprintf_r+0x554>)
 1201b2e:	2003      	movs	r0, #3
 1201b30:	900b      	str	r0, [sp, #44]	; 0x2c
 1201b32:	f1b8 0f47 	cmp.w	r8, #71	; 0x47
 1201b36:	bfd8      	it	le
 1201b38:	4617      	movle	r7, r2
 1201b3a:	f021 0480 	bic.w	r4, r1, #128	; 0x80
 1201b3e:	2003      	movs	r0, #3
 1201b40:	2200      	movs	r2, #0
 1201b42:	9409      	str	r4, [sp, #36]	; 0x24
 1201b44:	900e      	str	r0, [sp, #56]	; 0x38
 1201b46:	9215      	str	r2, [sp, #84]	; 0x54
 1201b48:	e70d      	b.n	1201966 <_svfprintf_r+0x262>
 1201b4a:	9a10      	ldr	r2, [sp, #64]	; 0x40
 1201b4c:	9b10      	ldr	r3, [sp, #64]	; 0x40
 1201b4e:	6817      	ldr	r7, [r2, #0]
 1201b50:	1d1a      	adds	r2, r3, #4
 1201b52:	2f00      	cmp	r7, #0
 1201b54:	970d      	str	r7, [sp, #52]	; 0x34
 1201b56:	f6ff af7e 	blt.w	1201a56 <_svfprintf_r+0x352>
 1201b5a:	f89a 8000 	ldrb.w	r8, [sl]
 1201b5e:	9210      	str	r2, [sp, #64]	; 0x40
 1201b60:	e631      	b.n	12017c6 <_svfprintf_r+0xc2>
 1201b62:	f88d 1073 	strb.w	r1, [sp, #115]	; 0x73
 1201b66:	f89a 8000 	ldrb.w	r8, [sl]
 1201b6a:	e62c      	b.n	12017c6 <_svfprintf_r+0xc2>
 1201b6c:	4654      	mov	r4, sl
 1201b6e:	f814 8b01 	ldrb.w	r8, [r4], #1
 1201b72:	f1b8 0f2a 	cmp.w	r8, #42	; 0x2a
 1201b76:	f001 82f4 	beq.w	1203162 <_svfprintf_r+0x1a5e>
 1201b7a:	f1a8 0330 	sub.w	r3, r8, #48	; 0x30
 1201b7e:	2200      	movs	r2, #0
 1201b80:	2b09      	cmp	r3, #9
 1201b82:	f201 823e 	bhi.w	1203002 <_svfprintf_r+0x18fe>
 1201b86:	f814 8b01 	ldrb.w	r8, [r4], #1
 1201b8a:	eb02 0782 	add.w	r7, r2, r2, lsl #2
 1201b8e:	eb03 0247 	add.w	r2, r3, r7, lsl #1
 1201b92:	f1a8 0330 	sub.w	r3, r8, #48	; 0x30
 1201b96:	2b09      	cmp	r3, #9
 1201b98:	46a2      	mov	sl, r4
 1201b9a:	d9f4      	bls.n	1201b86 <_svfprintf_r+0x482>
 1201b9c:	ea42 74e2 	orr.w	r4, r2, r2, asr #31
 1201ba0:	940a      	str	r4, [sp, #40]	; 0x28
 1201ba2:	e612      	b.n	12017ca <_svfprintf_r+0xc6>
 1201ba4:	9910      	ldr	r1, [sp, #64]	; 0x40
 1201ba6:	9c10      	ldr	r4, [sp, #64]	; 0x40
 1201ba8:	6808      	ldr	r0, [r1, #0]
 1201baa:	2701      	movs	r7, #1
 1201bac:	1d22      	adds	r2, r4, #4
 1201bae:	2300      	movs	r3, #0
 1201bb0:	970b      	str	r7, [sp, #44]	; 0x2c
 1201bb2:	970e      	str	r7, [sp, #56]	; 0x38
 1201bb4:	9210      	str	r2, [sp, #64]	; 0x40
 1201bb6:	f88d 00a0 	strb.w	r0, [sp, #160]	; 0xa0
 1201bba:	f88d 3073 	strb.w	r3, [sp, #115]	; 0x73
 1201bbe:	af28      	add	r7, sp, #160	; 0xa0
 1201bc0:	2300      	movs	r3, #0
 1201bc2:	9312      	str	r3, [sp, #72]	; 0x48
 1201bc4:	9315      	str	r3, [sp, #84]	; 0x54
 1201bc6:	e6d2      	b.n	120196e <_svfprintf_r+0x26a>
 1201bc8:	9c09      	ldr	r4, [sp, #36]	; 0x24
 1201bca:	f044 0308 	orr.w	r3, r4, #8
 1201bce:	9309      	str	r3, [sp, #36]	; 0x24
 1201bd0:	f89a 8000 	ldrb.w	r8, [sl]
 1201bd4:	e5f7      	b.n	12017c6 <_svfprintf_r+0xc2>
 1201bd6:	9909      	ldr	r1, [sp, #36]	; 0x24
 1201bd8:	4d20      	ldr	r5, [pc, #128]	; (1201c5c <_svfprintf_r+0x558>)
 1201bda:	068f      	lsls	r7, r1, #26
 1201bdc:	9519      	str	r5, [sp, #100]	; 0x64
 1201bde:	d548      	bpl.n	1201c72 <_svfprintf_r+0x56e>
 1201be0:	9f10      	ldr	r7, [sp, #64]	; 0x40
 1201be2:	1dfa      	adds	r2, r7, #7
 1201be4:	f022 0307 	bic.w	r3, r2, #7
 1201be8:	f103 0408 	add.w	r4, r3, #8
 1201bec:	9410      	str	r4, [sp, #64]	; 0x40
 1201bee:	e9d3 4500 	ldrd	r4, r5, [r3]
 1201bf2:	9909      	ldr	r1, [sp, #36]	; 0x24
 1201bf4:	07c8      	lsls	r0, r1, #31
 1201bf6:	f140 8444 	bpl.w	1202482 <_svfprintf_r+0xd7e>
 1201bfa:	ea54 0005 	orrs.w	r0, r4, r5
 1201bfe:	f000 8440 	beq.w	1202482 <_svfprintf_r+0xd7e>
 1201c02:	2030      	movs	r0, #48	; 0x30
 1201c04:	f041 0702 	orr.w	r7, r1, #2
 1201c08:	f88d 0074 	strb.w	r0, [sp, #116]	; 0x74
 1201c0c:	f88d 8075 	strb.w	r8, [sp, #117]	; 0x75
 1201c10:	9709      	str	r7, [sp, #36]	; 0x24
 1201c12:	2302      	movs	r3, #2
 1201c14:	e764      	b.n	1201ae0 <_svfprintf_r+0x3dc>
 1201c16:	9810      	ldr	r0, [sp, #64]	; 0x40
 1201c18:	9909      	ldr	r1, [sp, #36]	; 0x24
 1201c1a:	9d10      	ldr	r5, [sp, #64]	; 0x40
 1201c1c:	1d07      	adds	r7, r0, #4
 1201c1e:	4810      	ldr	r0, [pc, #64]	; (1201c60 <_svfprintf_r+0x55c>)
 1201c20:	f041 0302 	orr.w	r3, r1, #2
 1201c24:	f04f 0878 	mov.w	r8, #120	; 0x78
 1201c28:	2230      	movs	r2, #48	; 0x30
 1201c2a:	682c      	ldr	r4, [r5, #0]
 1201c2c:	9309      	str	r3, [sp, #36]	; 0x24
 1201c2e:	9710      	str	r7, [sp, #64]	; 0x40
 1201c30:	2500      	movs	r5, #0
 1201c32:	f88d 2074 	strb.w	r2, [sp, #116]	; 0x74
 1201c36:	f88d 8075 	strb.w	r8, [sp, #117]	; 0x75
 1201c3a:	9019      	str	r0, [sp, #100]	; 0x64
 1201c3c:	2302      	movs	r3, #2
 1201c3e:	e74f      	b.n	1201ae0 <_svfprintf_r+0x3dc>
 1201c40:	9b09      	ldr	r3, [sp, #36]	; 0x24
 1201c42:	f043 0220 	orr.w	r2, r3, #32
 1201c46:	9209      	str	r2, [sp, #36]	; 0x24
 1201c48:	f89a 8000 	ldrb.w	r8, [sl]
 1201c4c:	e5bb      	b.n	12017c6 <_svfprintf_r+0xc2>
 1201c4e:	bf00      	nop
 1201c50:	01200228 	teqeq	r0, r8, lsr #4
 1201c54:	0120616c 	teqeq	r0, ip, ror #2
 1201c58:	01206170 	teqeq	r0, r0, ror r1
 1201c5c:	0120617c 	teqeq	r0, ip, ror r1
 1201c60:	01206190 			; <UNDEFINED> instruction: 0x01206190
 1201c64:	01200218 	teqeq	r0, r8, lsl r2
 1201c68:	9909      	ldr	r1, [sp, #36]	; 0x24
 1201c6a:	4d9b      	ldr	r5, [pc, #620]	; (1201ed8 <_svfprintf_r+0x7d4>)
 1201c6c:	068f      	lsls	r7, r1, #26
 1201c6e:	9519      	str	r5, [sp, #100]	; 0x64
 1201c70:	d4b6      	bmi.n	1201be0 <_svfprintf_r+0x4dc>
 1201c72:	9809      	ldr	r0, [sp, #36]	; 0x24
 1201c74:	06c5      	lsls	r5, r0, #27
 1201c76:	f100 8592 	bmi.w	120279e <_svfprintf_r+0x109a>
 1201c7a:	9f09      	ldr	r7, [sp, #36]	; 0x24
 1201c7c:	067c      	lsls	r4, r7, #25
 1201c7e:	f140 858e 	bpl.w	120279e <_svfprintf_r+0x109a>
 1201c82:	9a10      	ldr	r2, [sp, #64]	; 0x40
 1201c84:	2500      	movs	r5, #0
 1201c86:	1d13      	adds	r3, r2, #4
 1201c88:	8814      	ldrh	r4, [r2, #0]
 1201c8a:	9310      	str	r3, [sp, #64]	; 0x40
 1201c8c:	e7b1      	b.n	1201bf2 <_svfprintf_r+0x4ee>
 1201c8e:	f1b8 0f00 	cmp.w	r8, #0
 1201c92:	f43f aef3 	beq.w	1201a7c <_svfprintf_r+0x378>
 1201c96:	2201      	movs	r2, #1
 1201c98:	2400      	movs	r4, #0
 1201c9a:	920b      	str	r2, [sp, #44]	; 0x2c
 1201c9c:	f88d 80a0 	strb.w	r8, [sp, #160]	; 0xa0
 1201ca0:	f88d 4073 	strb.w	r4, [sp, #115]	; 0x73
 1201ca4:	920e      	str	r2, [sp, #56]	; 0x38
 1201ca6:	af28      	add	r7, sp, #160	; 0xa0
 1201ca8:	e78a      	b.n	1201bc0 <_svfprintf_r+0x4bc>
 1201caa:	9c10      	ldr	r4, [sp, #64]	; 0x40
 1201cac:	2301      	movs	r3, #1
 1201cae:	1de0      	adds	r0, r4, #7
 1201cb0:	f020 0507 	bic.w	r5, r0, #7
 1201cb4:	f105 0708 	add.w	r7, r5, #8
 1201cb8:	9710      	str	r7, [sp, #64]	; 0x40
 1201cba:	e9d5 4500 	ldrd	r4, r5, [r5]
 1201cbe:	e70f      	b.n	1201ae0 <_svfprintf_r+0x3dc>
 1201cc0:	f89d 3073 	ldrb.w	r3, [sp, #115]	; 0x73
 1201cc4:	2b00      	cmp	r3, #0
 1201cc6:	f040 8695 	bne.w	12029f4 <_svfprintf_r+0x12f0>
 1201cca:	f88d 0073 	strb.w	r0, [sp, #115]	; 0x73
 1201cce:	f89a 8000 	ldrb.w	r8, [sl]
 1201cd2:	e578      	b.n	12017c6 <_svfprintf_r+0xc2>
 1201cd4:	9c09      	ldr	r4, [sp, #36]	; 0x24
 1201cd6:	f044 0701 	orr.w	r7, r4, #1
 1201cda:	9709      	str	r7, [sp, #36]	; 0x24
 1201cdc:	f89a 8000 	ldrb.w	r8, [sl]
 1201ce0:	e571      	b.n	12017c6 <_svfprintf_r+0xc2>
 1201ce2:	9f09      	ldr	r7, [sp, #36]	; 0x24
 1201ce4:	f047 0380 	orr.w	r3, r7, #128	; 0x80
 1201ce8:	9309      	str	r3, [sp, #36]	; 0x24
 1201cea:	f89a 8000 	ldrb.w	r8, [sl]
 1201cee:	e56a      	b.n	12017c6 <_svfprintf_r+0xc2>
 1201cf0:	4657      	mov	r7, sl
 1201cf2:	2200      	movs	r2, #0
 1201cf4:	f1a8 0530 	sub.w	r5, r8, #48	; 0x30
 1201cf8:	f817 8b01 	ldrb.w	r8, [r7], #1
 1201cfc:	eb02 0382 	add.w	r3, r2, r2, lsl #2
 1201d00:	f1a8 0430 	sub.w	r4, r8, #48	; 0x30
 1201d04:	2c09      	cmp	r4, #9
 1201d06:	eb05 0243 	add.w	r2, r5, r3, lsl #1
 1201d0a:	46ba      	mov	sl, r7
 1201d0c:	d9f2      	bls.n	1201cf4 <_svfprintf_r+0x5f0>
 1201d0e:	920d      	str	r2, [sp, #52]	; 0x34
 1201d10:	e55b      	b.n	12017ca <_svfprintf_r+0xc6>
 1201d12:	9c09      	ldr	r4, [sp, #36]	; 0x24
 1201d14:	06a4      	lsls	r4, r4, #26
 1201d16:	f140 8661 	bpl.w	12029dc <_svfprintf_r+0x12d8>
 1201d1a:	9f10      	ldr	r7, [sp, #64]	; 0x40
 1201d1c:	980f      	ldr	r0, [sp, #60]	; 0x3c
 1201d1e:	683b      	ldr	r3, [r7, #0]
 1201d20:	17c4      	asrs	r4, r0, #31
 1201d22:	3704      	adds	r7, #4
 1201d24:	6018      	str	r0, [r3, #0]
 1201d26:	605c      	str	r4, [r3, #4]
 1201d28:	9710      	str	r7, [sp, #64]	; 0x40
 1201d2a:	e515      	b.n	1201758 <_svfprintf_r+0x54>
 1201d2c:	9a09      	ldr	r2, [sp, #36]	; 0x24
 1201d2e:	f042 0340 	orr.w	r3, r2, #64	; 0x40
 1201d32:	9309      	str	r3, [sp, #36]	; 0x24
 1201d34:	f89a 8000 	ldrb.w	r8, [sl]
 1201d38:	e545      	b.n	12017c6 <_svfprintf_r+0xc2>
 1201d3a:	9b10      	ldr	r3, [sp, #64]	; 0x40
 1201d3c:	2400      	movs	r4, #0
 1201d3e:	f88d 4073 	strb.w	r4, [sp, #115]	; 0x73
 1201d42:	681f      	ldr	r7, [r3, #0]
 1201d44:	1d1d      	adds	r5, r3, #4
 1201d46:	2f00      	cmp	r7, #0
 1201d48:	f001 80c5 	beq.w	1202ed6 <_svfprintf_r+0x17d2>
 1201d4c:	990a      	ldr	r1, [sp, #40]	; 0x28
 1201d4e:	4638      	mov	r0, r7
 1201d50:	2900      	cmp	r1, #0
 1201d52:	f2c1 8002 	blt.w	1202d5a <_svfprintf_r+0x1656>
 1201d56:	4621      	mov	r1, r4
 1201d58:	9a0a      	ldr	r2, [sp, #40]	; 0x28
 1201d5a:	f002 ff53 	bl	1204c04 <memchr>
 1201d5e:	2800      	cmp	r0, #0
 1201d60:	f001 8142 	beq.w	1202fe8 <_svfprintf_r+0x18e4>
 1201d64:	990a      	ldr	r1, [sp, #40]	; 0x28
 1201d66:	1bc0      	subs	r0, r0, r7
 1201d68:	4288      	cmp	r0, r1
 1201d6a:	900e      	str	r0, [sp, #56]	; 0x38
 1201d6c:	9412      	str	r4, [sp, #72]	; 0x48
 1201d6e:	f340 87a6 	ble.w	1202cbe <_svfprintf_r+0x15ba>
 1201d72:	9812      	ldr	r0, [sp, #72]	; 0x48
 1201d74:	ea21 74e1 	bic.w	r4, r1, r1, asr #31
 1201d78:	940b      	str	r4, [sp, #44]	; 0x2c
 1201d7a:	f89d 3073 	ldrb.w	r3, [sp, #115]	; 0x73
 1201d7e:	9510      	str	r5, [sp, #64]	; 0x40
 1201d80:	910e      	str	r1, [sp, #56]	; 0x38
 1201d82:	9015      	str	r0, [sp, #84]	; 0x54
 1201d84:	e5ef      	b.n	1201966 <_svfprintf_r+0x262>
 1201d86:	f89a 8000 	ldrb.w	r8, [sl]
 1201d8a:	4652      	mov	r2, sl
 1201d8c:	f1b8 0f6c 	cmp.w	r8, #108	; 0x6c
 1201d90:	f000 86de 	beq.w	1202b50 <_svfprintf_r+0x144c>
 1201d94:	9f09      	ldr	r7, [sp, #36]	; 0x24
 1201d96:	f047 0310 	orr.w	r3, r7, #16
 1201d9a:	9309      	str	r3, [sp, #36]	; 0x24
 1201d9c:	e513      	b.n	12017c6 <_svfprintf_r+0xc2>
 1201d9e:	4638      	mov	r0, r7
 1201da0:	4659      	mov	r1, fp
 1201da2:	aa25      	add	r2, sp, #148	; 0x94
 1201da4:	f003 fd1e 	bl	12057e4 <__ssprint_r>
 1201da8:	2800      	cmp	r0, #0
 1201daa:	f47f ae6e 	bne.w	1201a8a <_svfprintf_r+0x386>
 1201dae:	3e10      	subs	r6, #16
 1201db0:	2e10      	cmp	r6, #16
 1201db2:	ab32      	add	r3, sp, #200	; 0xc8
 1201db4:	9927      	ldr	r1, [sp, #156]	; 0x9c
 1201db6:	9a26      	ldr	r2, [sp, #152]	; 0x98
 1201db8:	f73f ae37 	bgt.w	1201a2a <_svfprintf_r+0x326>
 1201dbc:	462f      	mov	r7, r5
 1201dbe:	4635      	mov	r5, r6
 1201dc0:	461e      	mov	r6, r3
 1201dc2:	194c      	adds	r4, r1, r5
 1201dc4:	9b1b      	ldr	r3, [sp, #108]	; 0x6c
 1201dc6:	1c51      	adds	r1, r2, #1
 1201dc8:	2907      	cmp	r1, #7
 1201dca:	e886 0028 	stmia.w	r6, {r3, r5}
 1201dce:	9427      	str	r4, [sp, #156]	; 0x9c
 1201dd0:	9126      	str	r1, [sp, #152]	; 0x98
 1201dd2:	f300 840f 	bgt.w	12025f4 <_svfprintf_r+0xef0>
 1201dd6:	3608      	adds	r6, #8
 1201dd8:	e000      	b.n	1201ddc <_svfprintf_r+0x6d8>
 1201dda:	9c27      	ldr	r4, [sp, #156]	; 0x9c
 1201ddc:	f89d 0073 	ldrb.w	r0, [sp, #115]	; 0x73
 1201de0:	b168      	cbz	r0, 1201dfe <_svfprintf_r+0x6fa>
 1201de2:	9b26      	ldr	r3, [sp, #152]	; 0x98
 1201de4:	3401      	adds	r4, #1
 1201de6:	1c59      	adds	r1, r3, #1
 1201de8:	2001      	movs	r0, #1
 1201dea:	f10d 0273 	add.w	r2, sp, #115	; 0x73
 1201dee:	2907      	cmp	r1, #7
 1201df0:	6032      	str	r2, [r6, #0]
 1201df2:	6070      	str	r0, [r6, #4]
 1201df4:	9427      	str	r4, [sp, #156]	; 0x9c
 1201df6:	9126      	str	r1, [sp, #152]	; 0x98
 1201df8:	f300 8305 	bgt.w	1202406 <_svfprintf_r+0xd02>
 1201dfc:	3608      	adds	r6, #8
 1201dfe:	9b0a      	ldr	r3, [sp, #40]	; 0x28
 1201e00:	b163      	cbz	r3, 1201e1c <_svfprintf_r+0x718>
 1201e02:	9926      	ldr	r1, [sp, #152]	; 0x98
 1201e04:	3402      	adds	r4, #2
 1201e06:	1c48      	adds	r0, r1, #1
 1201e08:	2302      	movs	r3, #2
 1201e0a:	aa1d      	add	r2, sp, #116	; 0x74
 1201e0c:	2807      	cmp	r0, #7
 1201e0e:	6032      	str	r2, [r6, #0]
 1201e10:	6073      	str	r3, [r6, #4]
 1201e12:	9427      	str	r4, [sp, #156]	; 0x9c
 1201e14:	9026      	str	r0, [sp, #152]	; 0x98
 1201e16:	f300 8301 	bgt.w	120241c <_svfprintf_r+0xd18>
 1201e1a:	3608      	adds	r6, #8
 1201e1c:	9d13      	ldr	r5, [sp, #76]	; 0x4c
 1201e1e:	2d80      	cmp	r5, #128	; 0x80
 1201e20:	f000 822e 	beq.w	1202280 <_svfprintf_r+0xb7c>
 1201e24:	9d12      	ldr	r5, [sp, #72]	; 0x48
 1201e26:	9b0e      	ldr	r3, [sp, #56]	; 0x38
 1201e28:	1aed      	subs	r5, r5, r3
 1201e2a:	2d00      	cmp	r5, #0
 1201e2c:	dd75      	ble.n	1201f1a <_svfprintf_r+0x816>
 1201e2e:	2d10      	cmp	r5, #16
 1201e30:	f340 85f3 	ble.w	1202a1a <_svfprintf_r+0x1316>
 1201e34:	9a26      	ldr	r2, [sp, #152]	; 0x98
 1201e36:	2310      	movs	r3, #16
 1201e38:	3201      	adds	r2, #1
 1201e3a:	4828      	ldr	r0, [pc, #160]	; (1201edc <_svfprintf_r+0x7d8>)
 1201e3c:	f1a5 0e11 	sub.w	lr, r5, #17
 1201e40:	18e4      	adds	r4, r4, r3
 1201e42:	2a07      	cmp	r2, #7
 1201e44:	f8c6 9000 	str.w	r9, [r6]
 1201e48:	6073      	str	r3, [r6, #4]
 1201e4a:	900a      	str	r0, [sp, #40]	; 0x28
 1201e4c:	9427      	str	r4, [sp, #156]	; 0x9c
 1201e4e:	9226      	str	r2, [sp, #152]	; 0x98
 1201e50:	f3ce 1c00 	ubfx	ip, lr, #4, #1
 1201e54:	f300 82ac 	bgt.w	12023b0 <_svfprintf_r+0xcac>
 1201e58:	3608      	adds	r6, #8
 1201e5a:	3d10      	subs	r5, #16
 1201e5c:	2d10      	cmp	r5, #16
 1201e5e:	dd51      	ble.n	1201f04 <_svfprintf_r+0x800>
 1201e60:	f1bc 0f00 	cmp.w	ip, #0
 1201e64:	d00d      	beq.n	1201e82 <_svfprintf_r+0x77e>
 1201e66:	3201      	adds	r2, #1
 1201e68:	3410      	adds	r4, #16
 1201e6a:	2a07      	cmp	r2, #7
 1201e6c:	f8c6 9000 	str.w	r9, [r6]
 1201e70:	6073      	str	r3, [r6, #4]
 1201e72:	9427      	str	r4, [sp, #156]	; 0x9c
 1201e74:	9226      	str	r2, [sp, #152]	; 0x98
 1201e76:	f300 82ad 	bgt.w	12023d4 <_svfprintf_r+0xcd0>
 1201e7a:	3608      	adds	r6, #8
 1201e7c:	3d10      	subs	r5, #16
 1201e7e:	2d10      	cmp	r5, #16
 1201e80:	dd40      	ble.n	1201f04 <_svfprintf_r+0x800>
 1201e82:	4631      	mov	r1, r6
 1201e84:	463e      	mov	r6, r7
 1201e86:	9f0c      	ldr	r7, [sp, #48]	; 0x30
 1201e88:	e00e      	b.n	1201ea8 <_svfprintf_r+0x7a4>
 1201e8a:	3108      	adds	r1, #8
 1201e8c:	3201      	adds	r2, #1
 1201e8e:	3410      	adds	r4, #16
 1201e90:	3d10      	subs	r5, #16
 1201e92:	2a07      	cmp	r2, #7
 1201e94:	f8c1 9000 	str.w	r9, [r1]
 1201e98:	604b      	str	r3, [r1, #4]
 1201e9a:	9226      	str	r2, [sp, #152]	; 0x98
 1201e9c:	9427      	str	r4, [sp, #156]	; 0x9c
 1201e9e:	dc1f      	bgt.n	1201ee0 <_svfprintf_r+0x7dc>
 1201ea0:	3d10      	subs	r5, #16
 1201ea2:	3108      	adds	r1, #8
 1201ea4:	2d10      	cmp	r5, #16
 1201ea6:	dd2b      	ble.n	1201f00 <_svfprintf_r+0x7fc>
 1201ea8:	3201      	adds	r2, #1
 1201eaa:	3410      	adds	r4, #16
 1201eac:	2a07      	cmp	r2, #7
 1201eae:	f8c1 9000 	str.w	r9, [r1]
 1201eb2:	604b      	str	r3, [r1, #4]
 1201eb4:	9427      	str	r4, [sp, #156]	; 0x9c
 1201eb6:	9226      	str	r2, [sp, #152]	; 0x98
 1201eb8:	dde7      	ble.n	1201e8a <_svfprintf_r+0x786>
 1201eba:	4638      	mov	r0, r7
 1201ebc:	4659      	mov	r1, fp
 1201ebe:	aa25      	add	r2, sp, #148	; 0x94
 1201ec0:	9306      	str	r3, [sp, #24]
 1201ec2:	f003 fc8f 	bl	12057e4 <__ssprint_r>
 1201ec6:	9b06      	ldr	r3, [sp, #24]
 1201ec8:	2800      	cmp	r0, #0
 1201eca:	f47f adde 	bne.w	1201a8a <_svfprintf_r+0x386>
 1201ece:	9c27      	ldr	r4, [sp, #156]	; 0x9c
 1201ed0:	9a26      	ldr	r2, [sp, #152]	; 0x98
 1201ed2:	a932      	add	r1, sp, #200	; 0xc8
 1201ed4:	e7da      	b.n	1201e8c <_svfprintf_r+0x788>
 1201ed6:	bf00      	nop
 1201ed8:	01206190 			; <UNDEFINED> instruction: 0x01206190
 1201edc:	01200218 	teqeq	r0, r8, lsl r2
 1201ee0:	4638      	mov	r0, r7
 1201ee2:	4659      	mov	r1, fp
 1201ee4:	aa25      	add	r2, sp, #148	; 0x94
 1201ee6:	9306      	str	r3, [sp, #24]
 1201ee8:	f003 fc7c 	bl	12057e4 <__ssprint_r>
 1201eec:	9b06      	ldr	r3, [sp, #24]
 1201eee:	2800      	cmp	r0, #0
 1201ef0:	f47f adcb 	bne.w	1201a8a <_svfprintf_r+0x386>
 1201ef4:	3d10      	subs	r5, #16
 1201ef6:	2d10      	cmp	r5, #16
 1201ef8:	a932      	add	r1, sp, #200	; 0xc8
 1201efa:	9c27      	ldr	r4, [sp, #156]	; 0x9c
 1201efc:	9a26      	ldr	r2, [sp, #152]	; 0x98
 1201efe:	dcd3      	bgt.n	1201ea8 <_svfprintf_r+0x7a4>
 1201f00:	4637      	mov	r7, r6
 1201f02:	460e      	mov	r6, r1
 1201f04:	1c50      	adds	r0, r2, #1
 1201f06:	9b0a      	ldr	r3, [sp, #40]	; 0x28
 1201f08:	1964      	adds	r4, r4, r5
 1201f0a:	2807      	cmp	r0, #7
 1201f0c:	e886 0028 	stmia.w	r6, {r3, r5}
 1201f10:	9427      	str	r4, [sp, #156]	; 0x9c
 1201f12:	9026      	str	r0, [sp, #152]	; 0x98
 1201f14:	f300 826c 	bgt.w	12023f0 <_svfprintf_r+0xcec>
 1201f18:	3608      	adds	r6, #8
 1201f1a:	9b09      	ldr	r3, [sp, #36]	; 0x24
 1201f1c:	05db      	lsls	r3, r3, #23
 1201f1e:	f100 811e 	bmi.w	120215e <_svfprintf_r+0xa5a>
 1201f22:	9826      	ldr	r0, [sp, #152]	; 0x98
 1201f24:	9a0e      	ldr	r2, [sp, #56]	; 0x38
 1201f26:	6037      	str	r7, [r6, #0]
 1201f28:	1c41      	adds	r1, r0, #1
 1201f2a:	9f0e      	ldr	r7, [sp, #56]	; 0x38
 1201f2c:	18a4      	adds	r4, r4, r2
 1201f2e:	2907      	cmp	r1, #7
 1201f30:	6077      	str	r7, [r6, #4]
 1201f32:	9427      	str	r4, [sp, #156]	; 0x9c
 1201f34:	9126      	str	r1, [sp, #152]	; 0x98
 1201f36:	f300 80a8 	bgt.w	120208a <_svfprintf_r+0x986>
 1201f3a:	3608      	adds	r6, #8
 1201f3c:	9f09      	ldr	r7, [sp, #36]	; 0x24
 1201f3e:	077b      	lsls	r3, r7, #29
 1201f40:	f140 80b1 	bpl.w	12020a6 <_svfprintf_r+0x9a2>
 1201f44:	9d0d      	ldr	r5, [sp, #52]	; 0x34
 1201f46:	9b0b      	ldr	r3, [sp, #44]	; 0x2c
 1201f48:	1aed      	subs	r5, r5, r3
 1201f4a:	2d00      	cmp	r5, #0
 1201f4c:	f340 80ab 	ble.w	12020a6 <_svfprintf_r+0x9a2>
 1201f50:	2d10      	cmp	r5, #16
 1201f52:	f340 87cc 	ble.w	1202eee <_svfprintf_r+0x17ea>
 1201f56:	9826      	ldr	r0, [sp, #152]	; 0x98
 1201f58:	2710      	movs	r7, #16
 1201f5a:	1c43      	adds	r3, r0, #1
 1201f5c:	49b2      	ldr	r1, [pc, #712]	; (1202228 <_svfprintf_r+0xb24>)
 1201f5e:	f240 2028 	movw	r0, #552	; 0x228
 1201f62:	f1a5 0c11 	sub.w	ip, r5, #17
 1201f66:	19e4      	adds	r4, r4, r7
 1201f68:	f2c0 1020 	movt	r0, #288	; 0x120
 1201f6c:	2b07      	cmp	r3, #7
 1201f6e:	e886 0081 	stmia.w	r6, {r0, r7}
 1201f72:	9109      	str	r1, [sp, #36]	; 0x24
 1201f74:	9427      	str	r4, [sp, #156]	; 0x9c
 1201f76:	9326      	str	r3, [sp, #152]	; 0x98
 1201f78:	f3cc 1800 	ubfx	r8, ip, #4, #1
 1201f7c:	f300 83bb 	bgt.w	12026f6 <_svfprintf_r+0xff2>
 1201f80:	3608      	adds	r6, #8
 1201f82:	3d10      	subs	r5, #16
 1201f84:	2d10      	cmp	r5, #16
 1201f86:	f340 80ad 	ble.w	12020e4 <_svfprintf_r+0x9e0>
 1201f8a:	f1b8 0f00 	cmp.w	r8, #0
 1201f8e:	d011      	beq.n	1201fb4 <_svfprintf_r+0x8b0>
 1201f90:	3301      	adds	r3, #1
 1201f92:	f240 2028 	movw	r0, #552	; 0x228
 1201f96:	3410      	adds	r4, #16
 1201f98:	f2c0 1020 	movt	r0, #288	; 0x120
 1201f9c:	2b07      	cmp	r3, #7
 1201f9e:	e886 0081 	stmia.w	r6, {r0, r7}
 1201fa2:	9427      	str	r4, [sp, #156]	; 0x9c
 1201fa4:	9326      	str	r3, [sp, #152]	; 0x98
 1201fa6:	f300 83d1 	bgt.w	120274c <_svfprintf_r+0x1048>
 1201faa:	3608      	adds	r6, #8
 1201fac:	3d10      	subs	r5, #16
 1201fae:	2d10      	cmp	r5, #16
 1201fb0:	f340 8098 	ble.w	12020e4 <_svfprintf_r+0x9e0>
 1201fb4:	f8dd 8030 	ldr.w	r8, [sp, #48]	; 0x30
 1201fb8:	e012      	b.n	1201fe0 <_svfprintf_r+0x8dc>
 1201fba:	3608      	adds	r6, #8
 1201fbc:	3301      	adds	r3, #1
 1201fbe:	f240 2028 	movw	r0, #552	; 0x228
 1201fc2:	3410      	adds	r4, #16
 1201fc4:	f2c0 1020 	movt	r0, #288	; 0x120
 1201fc8:	3d10      	subs	r5, #16
 1201fca:	2b07      	cmp	r3, #7
 1201fcc:	e886 0081 	stmia.w	r6, {r0, r7}
 1201fd0:	9326      	str	r3, [sp, #152]	; 0x98
 1201fd2:	9427      	str	r4, [sp, #156]	; 0x9c
 1201fd4:	dc77      	bgt.n	12020c6 <_svfprintf_r+0x9c2>
 1201fd6:	3d10      	subs	r5, #16
 1201fd8:	3608      	adds	r6, #8
 1201fda:	2d10      	cmp	r5, #16
 1201fdc:	f340 8082 	ble.w	12020e4 <_svfprintf_r+0x9e0>
 1201fe0:	3301      	adds	r3, #1
 1201fe2:	f240 2228 	movw	r2, #552	; 0x228
 1201fe6:	3410      	adds	r4, #16
 1201fe8:	f2c0 1220 	movt	r2, #288	; 0x120
 1201fec:	2b07      	cmp	r3, #7
 1201fee:	e886 0084 	stmia.w	r6, {r2, r7}
 1201ff2:	9427      	str	r4, [sp, #156]	; 0x9c
 1201ff4:	9326      	str	r3, [sp, #152]	; 0x98
 1201ff6:	dde0      	ble.n	1201fba <_svfprintf_r+0x8b6>
 1201ff8:	4640      	mov	r0, r8
 1201ffa:	4659      	mov	r1, fp
 1201ffc:	aa25      	add	r2, sp, #148	; 0x94
 1201ffe:	f003 fbf1 	bl	12057e4 <__ssprint_r>
 1202002:	2800      	cmp	r0, #0
 1202004:	f47f ad41 	bne.w	1201a8a <_svfprintf_r+0x386>
 1202008:	9c27      	ldr	r4, [sp, #156]	; 0x9c
 120200a:	9b26      	ldr	r3, [sp, #152]	; 0x98
 120200c:	ae32      	add	r6, sp, #200	; 0xc8
 120200e:	e7d5      	b.n	1201fbc <_svfprintf_r+0x8b8>
 1202010:	9911      	ldr	r1, [sp, #68]	; 0x44
 1202012:	9d26      	ldr	r5, [sp, #152]	; 0x98
 1202014:	3401      	adds	r4, #1
 1202016:	3501      	adds	r5, #1
 1202018:	2901      	cmp	r1, #1
 120201a:	f340 8479 	ble.w	1202910 <_svfprintf_r+0x120c>
 120201e:	2301      	movs	r3, #1
 1202020:	2d07      	cmp	r5, #7
 1202022:	6037      	str	r7, [r6, #0]
 1202024:	6073      	str	r3, [r6, #4]
 1202026:	9427      	str	r4, [sp, #156]	; 0x9c
 1202028:	9526      	str	r5, [sp, #152]	; 0x98
 120202a:	f300 8487 	bgt.w	120293c <_svfprintf_r+0x1238>
 120202e:	3608      	adds	r6, #8
 1202030:	9918      	ldr	r1, [sp, #96]	; 0x60
 1202032:	3501      	adds	r5, #1
 1202034:	9a14      	ldr	r2, [sp, #80]	; 0x50
 1202036:	1864      	adds	r4, r4, r1
 1202038:	2d07      	cmp	r5, #7
 120203a:	6032      	str	r2, [r6, #0]
 120203c:	6071      	str	r1, [r6, #4]
 120203e:	9427      	str	r4, [sp, #156]	; 0x9c
 1202040:	9526      	str	r5, [sp, #152]	; 0x98
 1202042:	f300 8488 	bgt.w	1202956 <_svfprintf_r+0x1252>
 1202046:	3608      	adds	r6, #8
 1202048:	e9dd 0116 	ldrd	r0, r1, [sp, #88]	; 0x58
 120204c:	2200      	movs	r2, #0
 120204e:	2300      	movs	r3, #0
 1202050:	f7fe fd92 	bl	1200b78 <__aeabi_dcmpeq>
 1202054:	2800      	cmp	r0, #0
 1202056:	f040 82d9 	bne.w	120260c <_svfprintf_r+0xf08>
 120205a:	9811      	ldr	r0, [sp, #68]	; 0x44
 120205c:	3701      	adds	r7, #1
 120205e:	3801      	subs	r0, #1
 1202060:	1824      	adds	r4, r4, r0
 1202062:	3501      	adds	r5, #1
 1202064:	6037      	str	r7, [r6, #0]
 1202066:	2d07      	cmp	r5, #7
 1202068:	6070      	str	r0, [r6, #4]
 120206a:	9427      	str	r4, [sp, #156]	; 0x9c
 120206c:	9526      	str	r5, [sp, #152]	; 0x98
 120206e:	f300 8189 	bgt.w	1202384 <_svfprintf_r+0xc80>
 1202072:	3608      	adds	r6, #8
 1202074:	9f1a      	ldr	r7, [sp, #104]	; 0x68
 1202076:	3501      	adds	r5, #1
 1202078:	19e4      	adds	r4, r4, r7
 120207a:	ab21      	add	r3, sp, #132	; 0x84
 120207c:	2d07      	cmp	r5, #7
 120207e:	e886 0088 	stmia.w	r6, {r3, r7}
 1202082:	9427      	str	r4, [sp, #156]	; 0x9c
 1202084:	9526      	str	r5, [sp, #152]	; 0x98
 1202086:	f77f af58 	ble.w	1201f3a <_svfprintf_r+0x836>
 120208a:	980c      	ldr	r0, [sp, #48]	; 0x30
 120208c:	4659      	mov	r1, fp
 120208e:	aa25      	add	r2, sp, #148	; 0x94
 1202090:	f003 fba8 	bl	12057e4 <__ssprint_r>
 1202094:	2800      	cmp	r0, #0
 1202096:	f47f acf8 	bne.w	1201a8a <_svfprintf_r+0x386>
 120209a:	9f09      	ldr	r7, [sp, #36]	; 0x24
 120209c:	ae32      	add	r6, sp, #200	; 0xc8
 120209e:	077b      	lsls	r3, r7, #29
 12020a0:	9c27      	ldr	r4, [sp, #156]	; 0x9c
 12020a2:	f53f af4f 	bmi.w	1201f44 <_svfprintf_r+0x840>
 12020a6:	9e0f      	ldr	r6, [sp, #60]	; 0x3c
 12020a8:	980b      	ldr	r0, [sp, #44]	; 0x2c
 12020aa:	9f0d      	ldr	r7, [sp, #52]	; 0x34
 12020ac:	42b8      	cmp	r0, r7
 12020ae:	bfac      	ite	ge
 12020b0:	1836      	addge	r6, r6, r0
 12020b2:	19f6      	addlt	r6, r6, r7
 12020b4:	960f      	str	r6, [sp, #60]	; 0x3c
 12020b6:	2c00      	cmp	r4, #0
 12020b8:	f040 8170 	bne.w	120239c <_svfprintf_r+0xc98>
 12020bc:	2600      	movs	r6, #0
 12020be:	9626      	str	r6, [sp, #152]	; 0x98
 12020c0:	ae32      	add	r6, sp, #200	; 0xc8
 12020c2:	f7ff bb49 	b.w	1201758 <_svfprintf_r+0x54>
 12020c6:	4640      	mov	r0, r8
 12020c8:	4659      	mov	r1, fp
 12020ca:	aa25      	add	r2, sp, #148	; 0x94
 12020cc:	f003 fb8a 	bl	12057e4 <__ssprint_r>
 12020d0:	2800      	cmp	r0, #0
 12020d2:	f47f acda 	bne.w	1201a8a <_svfprintf_r+0x386>
 12020d6:	3d10      	subs	r5, #16
 12020d8:	2d10      	cmp	r5, #16
 12020da:	ae32      	add	r6, sp, #200	; 0xc8
 12020dc:	9c27      	ldr	r4, [sp, #156]	; 0x9c
 12020de:	9b26      	ldr	r3, [sp, #152]	; 0x98
 12020e0:	f73f af7e 	bgt.w	1201fe0 <_svfprintf_r+0x8dc>
 12020e4:	1c5a      	adds	r2, r3, #1
 12020e6:	9f09      	ldr	r7, [sp, #36]	; 0x24
 12020e8:	192c      	adds	r4, r5, r4
 12020ea:	2a07      	cmp	r2, #7
 12020ec:	6037      	str	r7, [r6, #0]
 12020ee:	6075      	str	r5, [r6, #4]
 12020f0:	9427      	str	r4, [sp, #156]	; 0x9c
 12020f2:	9226      	str	r2, [sp, #152]	; 0x98
 12020f4:	ddd7      	ble.n	12020a6 <_svfprintf_r+0x9a2>
 12020f6:	980c      	ldr	r0, [sp, #48]	; 0x30
 12020f8:	4659      	mov	r1, fp
 12020fa:	aa25      	add	r2, sp, #148	; 0x94
 12020fc:	f003 fb72 	bl	12057e4 <__ssprint_r>
 1202100:	2800      	cmp	r0, #0
 1202102:	f47f acc2 	bne.w	1201a8a <_svfprintf_r+0x386>
 1202106:	9c27      	ldr	r4, [sp, #156]	; 0x9c
 1202108:	e7cd      	b.n	12020a6 <_svfprintf_r+0x9a2>
 120210a:	2b01      	cmp	r3, #1
 120210c:	f000 81ab 	beq.w	1202466 <_svfprintf_r+0xd62>
 1202110:	2b02      	cmp	r3, #2
 1202112:	f10d 0ec7 	add.w	lr, sp, #199	; 0xc7
 1202116:	f000 818c 	beq.w	1202432 <_svfprintf_r+0xd2e>
 120211a:	2307      	movs	r3, #7
 120211c:	08e7      	lsrs	r7, r4, #3
 120211e:	ea04 0003 	and.w	r0, r4, r3
 1202122:	08e9      	lsrs	r1, r5, #3
 1202124:	ea47 7445 	orr.w	r4, r7, r5, lsl #29
 1202128:	3030      	adds	r0, #48	; 0x30
 120212a:	460d      	mov	r5, r1
 120212c:	b2c2      	uxtb	r2, r0
 120212e:	ea54 0105 	orrs.w	r1, r4, r5
 1202132:	4677      	mov	r7, lr
 1202134:	f88e 2000 	strb.w	r2, [lr]
 1202138:	f10e 3eff 	add.w	lr, lr, #4294967295
 120213c:	d1ee      	bne.n	120211c <_svfprintf_r+0xa18>
 120213e:	9809      	ldr	r0, [sp, #36]	; 0x24
 1202140:	463b      	mov	r3, r7
 1202142:	07c1      	lsls	r1, r0, #31
 1202144:	d506      	bpl.n	1202154 <_svfprintf_r+0xa50>
 1202146:	2a30      	cmp	r2, #48	; 0x30
 1202148:	f000 8196 	beq.w	1202478 <_svfprintf_r+0xd74>
 120214c:	2430      	movs	r4, #48	; 0x30
 120214e:	4677      	mov	r7, lr
 1202150:	f803 4c01 	strb.w	r4, [r3, #-1]
 1202154:	9908      	ldr	r1, [sp, #32]
 1202156:	1bca      	subs	r2, r1, r7
 1202158:	920e      	str	r2, [sp, #56]	; 0x38
 120215a:	f7ff bbf9 	b.w	1201950 <_svfprintf_r+0x24c>
 120215e:	f1b8 0f65 	cmp.w	r8, #101	; 0x65
 1202162:	f77f af55 	ble.w	1202010 <_svfprintf_r+0x90c>
 1202166:	e9dd 0116 	ldrd	r0, r1, [sp, #88]	; 0x58
 120216a:	2200      	movs	r2, #0
 120216c:	2300      	movs	r3, #0
 120216e:	f7fe fd03 	bl	1200b78 <__aeabi_dcmpeq>
 1202172:	2800      	cmp	r0, #0
 1202174:	f000 81b2 	beq.w	12024dc <_svfprintf_r+0xdd8>
 1202178:	9826      	ldr	r0, [sp, #152]	; 0x98
 120217a:	492c      	ldr	r1, [pc, #176]	; (120222c <_svfprintf_r+0xb28>)
 120217c:	1c43      	adds	r3, r0, #1
 120217e:	3401      	adds	r4, #1
 1202180:	2201      	movs	r2, #1
 1202182:	2b07      	cmp	r3, #7
 1202184:	6031      	str	r1, [r6, #0]
 1202186:	6072      	str	r2, [r6, #4]
 1202188:	9427      	str	r4, [sp, #156]	; 0x9c
 120218a:	9326      	str	r3, [sp, #152]	; 0x98
 120218c:	f300 844a 	bgt.w	1202a24 <_svfprintf_r+0x1320>
 1202190:	3608      	adds	r6, #8
 1202192:	981e      	ldr	r0, [sp, #120]	; 0x78
 1202194:	9f11      	ldr	r7, [sp, #68]	; 0x44
 1202196:	42b8      	cmp	r0, r7
 1202198:	db03      	blt.n	12021a2 <_svfprintf_r+0xa9e>
 120219a:	9b09      	ldr	r3, [sp, #36]	; 0x24
 120219c:	07df      	lsls	r7, r3, #31
 120219e:	f57f aecd 	bpl.w	1201f3c <_svfprintf_r+0x838>
 12021a2:	9a26      	ldr	r2, [sp, #152]	; 0x98
 12021a4:	9f14      	ldr	r7, [sp, #80]	; 0x50
 12021a6:	9918      	ldr	r1, [sp, #96]	; 0x60
 12021a8:	6037      	str	r7, [r6, #0]
 12021aa:	1c50      	adds	r0, r2, #1
 12021ac:	9f18      	ldr	r7, [sp, #96]	; 0x60
 12021ae:	1864      	adds	r4, r4, r1
 12021b0:	2807      	cmp	r0, #7
 12021b2:	6077      	str	r7, [r6, #4]
 12021b4:	9427      	str	r4, [sp, #156]	; 0x9c
 12021b6:	9026      	str	r0, [sp, #152]	; 0x98
 12021b8:	f300 8575 	bgt.w	1202ca6 <_svfprintf_r+0x15a2>
 12021bc:	3608      	adds	r6, #8
 12021be:	9d11      	ldr	r5, [sp, #68]	; 0x44
 12021c0:	3d01      	subs	r5, #1
 12021c2:	2d00      	cmp	r5, #0
 12021c4:	f77f aeba 	ble.w	1201f3c <_svfprintf_r+0x838>
 12021c8:	2d10      	cmp	r5, #16
 12021ca:	f340 8286 	ble.w	12026da <_svfprintf_r+0xfd6>
 12021ce:	9a26      	ldr	r2, [sp, #152]	; 0x98
 12021d0:	9b11      	ldr	r3, [sp, #68]	; 0x44
 12021d2:	2710      	movs	r7, #16
 12021d4:	f1a3 0e12 	sub.w	lr, r3, #18
 12021d8:	4815      	ldr	r0, [pc, #84]	; (1202230 <_svfprintf_r+0xb2c>)
 12021da:	1c53      	adds	r3, r2, #1
 12021dc:	19e4      	adds	r4, r4, r7
 12021de:	2b07      	cmp	r3, #7
 12021e0:	f8c6 9000 	str.w	r9, [r6]
 12021e4:	6077      	str	r7, [r6, #4]
 12021e6:	900a      	str	r0, [sp, #40]	; 0x28
 12021e8:	9427      	str	r4, [sp, #156]	; 0x9c
 12021ea:	9326      	str	r3, [sp, #152]	; 0x98
 12021ec:	f3ce 1800 	ubfx	r8, lr, #4, #1
 12021f0:	f300 8617 	bgt.w	1202e22 <_svfprintf_r+0x171e>
 12021f4:	3608      	adds	r6, #8
 12021f6:	3d10      	subs	r5, #16
 12021f8:	2d10      	cmp	r5, #16
 12021fa:	f340 8271 	ble.w	12026e0 <_svfprintf_r+0xfdc>
 12021fe:	f1b8 0f00 	cmp.w	r8, #0
 1202202:	d00e      	beq.n	1202222 <_svfprintf_r+0xb1e>
 1202204:	3301      	adds	r3, #1
 1202206:	3410      	adds	r4, #16
 1202208:	2b07      	cmp	r3, #7
 120220a:	f8c6 9000 	str.w	r9, [r6]
 120220e:	6077      	str	r7, [r6, #4]
 1202210:	9427      	str	r4, [sp, #156]	; 0x9c
 1202212:	9326      	str	r3, [sp, #152]	; 0x98
 1202214:	f300 862b 	bgt.w	1202e6e <_svfprintf_r+0x176a>
 1202218:	3608      	adds	r6, #8
 120221a:	3d10      	subs	r5, #16
 120221c:	2d10      	cmp	r5, #16
 120221e:	f340 825f 	ble.w	12026e0 <_svfprintf_r+0xfdc>
 1202222:	f8dd 8030 	ldr.w	r8, [sp, #48]	; 0x30
 1202226:	e016      	b.n	1202256 <_svfprintf_r+0xb52>
 1202228:	01200228 	teqeq	r0, r8, lsr #4
 120222c:	012061ac 	teqeq	r0, ip, lsr #3
 1202230:	01200218 	teqeq	r0, r8, lsl r2
 1202234:	3608      	adds	r6, #8
 1202236:	1c4b      	adds	r3, r1, #1
 1202238:	3410      	adds	r4, #16
 120223a:	3d10      	subs	r5, #16
 120223c:	2b07      	cmp	r3, #7
 120223e:	f8c6 9000 	str.w	r9, [r6]
 1202242:	6077      	str	r7, [r6, #4]
 1202244:	9326      	str	r3, [sp, #152]	; 0x98
 1202246:	9427      	str	r4, [sp, #156]	; 0x9c
 1202248:	f300 811e 	bgt.w	1202488 <_svfprintf_r+0xd84>
 120224c:	3608      	adds	r6, #8
 120224e:	3d10      	subs	r5, #16
 1202250:	2d10      	cmp	r5, #16
 1202252:	f340 8245 	ble.w	12026e0 <_svfprintf_r+0xfdc>
 1202256:	1c59      	adds	r1, r3, #1
 1202258:	3410      	adds	r4, #16
 120225a:	2907      	cmp	r1, #7
 120225c:	f8c6 9000 	str.w	r9, [r6]
 1202260:	6077      	str	r7, [r6, #4]
 1202262:	9427      	str	r4, [sp, #156]	; 0x9c
 1202264:	9126      	str	r1, [sp, #152]	; 0x98
 1202266:	dde5      	ble.n	1202234 <_svfprintf_r+0xb30>
 1202268:	4640      	mov	r0, r8
 120226a:	4659      	mov	r1, fp
 120226c:	aa25      	add	r2, sp, #148	; 0x94
 120226e:	f003 fab9 	bl	12057e4 <__ssprint_r>
 1202272:	2800      	cmp	r0, #0
 1202274:	f47f ac09 	bne.w	1201a8a <_svfprintf_r+0x386>
 1202278:	9c27      	ldr	r4, [sp, #156]	; 0x9c
 120227a:	9926      	ldr	r1, [sp, #152]	; 0x98
 120227c:	ae32      	add	r6, sp, #200	; 0xc8
 120227e:	e7da      	b.n	1202236 <_svfprintf_r+0xb32>
 1202280:	980d      	ldr	r0, [sp, #52]	; 0x34
 1202282:	990b      	ldr	r1, [sp, #44]	; 0x2c
 1202284:	1a45      	subs	r5, r0, r1
 1202286:	2d00      	cmp	r5, #0
 1202288:	f77f adcc 	ble.w	1201e24 <_svfprintf_r+0x720>
 120228c:	2d10      	cmp	r5, #16
 120228e:	f340 8688 	ble.w	1202fa2 <_svfprintf_r+0x189e>
 1202292:	9a26      	ldr	r2, [sp, #152]	; 0x98
 1202294:	2310      	movs	r3, #16
 1202296:	3201      	adds	r2, #1
 1202298:	488f      	ldr	r0, [pc, #572]	; (12024d8 <_svfprintf_r+0xdd4>)
 120229a:	f1a5 0111 	sub.w	r1, r5, #17
 120229e:	18e4      	adds	r4, r4, r3
 12022a0:	2a07      	cmp	r2, #7
 12022a2:	f8c6 9000 	str.w	r9, [r6]
 12022a6:	6073      	str	r3, [r6, #4]
 12022a8:	900a      	str	r0, [sp, #40]	; 0x28
 12022aa:	9427      	str	r4, [sp, #156]	; 0x9c
 12022ac:	9226      	str	r2, [sp, #152]	; 0x98
 12022ae:	f3c1 1c00 	ubfx	ip, r1, #4, #1
 12022b2:	f300 831b 	bgt.w	12028ec <_svfprintf_r+0x11e8>
 12022b6:	3608      	adds	r6, #8
 12022b8:	3d10      	subs	r5, #16
 12022ba:	2d10      	cmp	r5, #16
 12022bc:	dd4a      	ble.n	1202354 <_svfprintf_r+0xc50>
 12022be:	f1bc 0f00 	cmp.w	ip, #0
 12022c2:	d00d      	beq.n	12022e0 <_svfprintf_r+0xbdc>
 12022c4:	3201      	adds	r2, #1
 12022c6:	3410      	adds	r4, #16
 12022c8:	2a07      	cmp	r2, #7
 12022ca:	f8c6 9000 	str.w	r9, [r6]
 12022ce:	6073      	str	r3, [r6, #4]
 12022d0:	9427      	str	r4, [sp, #156]	; 0x9c
 12022d2:	9226      	str	r2, [sp, #152]	; 0x98
 12022d4:	f300 8324 	bgt.w	1202920 <_svfprintf_r+0x121c>
 12022d8:	3608      	adds	r6, #8
 12022da:	3d10      	subs	r5, #16
 12022dc:	2d10      	cmp	r5, #16
 12022de:	dd39      	ble.n	1202354 <_svfprintf_r+0xc50>
 12022e0:	4621      	mov	r1, r4
 12022e2:	9c0c      	ldr	r4, [sp, #48]	; 0x30
 12022e4:	e00e      	b.n	1202304 <_svfprintf_r+0xc00>
 12022e6:	3608      	adds	r6, #8
 12022e8:	3201      	adds	r2, #1
 12022ea:	3110      	adds	r1, #16
 12022ec:	3d10      	subs	r5, #16
 12022ee:	2a07      	cmp	r2, #7
 12022f0:	f8c6 9000 	str.w	r9, [r6]
 12022f4:	6073      	str	r3, [r6, #4]
 12022f6:	9226      	str	r2, [sp, #152]	; 0x98
 12022f8:	9127      	str	r1, [sp, #156]	; 0x9c
 12022fa:	dc1a      	bgt.n	1202332 <_svfprintf_r+0xc2e>
 12022fc:	3d10      	subs	r5, #16
 12022fe:	3608      	adds	r6, #8
 1202300:	2d10      	cmp	r5, #16
 1202302:	dd26      	ble.n	1202352 <_svfprintf_r+0xc4e>
 1202304:	3201      	adds	r2, #1
 1202306:	3110      	adds	r1, #16
 1202308:	2a07      	cmp	r2, #7
 120230a:	f8c6 9000 	str.w	r9, [r6]
 120230e:	6073      	str	r3, [r6, #4]
 1202310:	9127      	str	r1, [sp, #156]	; 0x9c
 1202312:	9226      	str	r2, [sp, #152]	; 0x98
 1202314:	dde7      	ble.n	12022e6 <_svfprintf_r+0xbe2>
 1202316:	4620      	mov	r0, r4
 1202318:	4659      	mov	r1, fp
 120231a:	aa25      	add	r2, sp, #148	; 0x94
 120231c:	9306      	str	r3, [sp, #24]
 120231e:	f003 fa61 	bl	12057e4 <__ssprint_r>
 1202322:	9b06      	ldr	r3, [sp, #24]
 1202324:	2800      	cmp	r0, #0
 1202326:	f47f abb0 	bne.w	1201a8a <_svfprintf_r+0x386>
 120232a:	9927      	ldr	r1, [sp, #156]	; 0x9c
 120232c:	9a26      	ldr	r2, [sp, #152]	; 0x98
 120232e:	ae32      	add	r6, sp, #200	; 0xc8
 1202330:	e7da      	b.n	12022e8 <_svfprintf_r+0xbe4>
 1202332:	4620      	mov	r0, r4
 1202334:	4659      	mov	r1, fp
 1202336:	aa25      	add	r2, sp, #148	; 0x94
 1202338:	9306      	str	r3, [sp, #24]
 120233a:	f003 fa53 	bl	12057e4 <__ssprint_r>
 120233e:	9b06      	ldr	r3, [sp, #24]
 1202340:	2800      	cmp	r0, #0
 1202342:	f47f aba2 	bne.w	1201a8a <_svfprintf_r+0x386>
 1202346:	3d10      	subs	r5, #16
 1202348:	2d10      	cmp	r5, #16
 120234a:	ae32      	add	r6, sp, #200	; 0xc8
 120234c:	9927      	ldr	r1, [sp, #156]	; 0x9c
 120234e:	9a26      	ldr	r2, [sp, #152]	; 0x98
 1202350:	dcd8      	bgt.n	1202304 <_svfprintf_r+0xc00>
 1202352:	460c      	mov	r4, r1
 1202354:	1c50      	adds	r0, r2, #1
 1202356:	9b0a      	ldr	r3, [sp, #40]	; 0x28
 1202358:	1964      	adds	r4, r4, r5
 120235a:	2807      	cmp	r0, #7
 120235c:	e886 0028 	stmia.w	r6, {r3, r5}
 1202360:	9427      	str	r4, [sp, #156]	; 0x9c
 1202362:	9026      	str	r0, [sp, #152]	; 0x98
 1202364:	f300 8309 	bgt.w	120297a <_svfprintf_r+0x1276>
 1202368:	3608      	adds	r6, #8
 120236a:	e55b      	b.n	1201e24 <_svfprintf_r+0x720>
 120236c:	485a      	ldr	r0, [pc, #360]	; (12024d8 <_svfprintf_r+0xdd4>)
 120236e:	900a      	str	r0, [sp, #40]	; 0x28
 1202370:	3501      	adds	r5, #1
 1202372:	9b0a      	ldr	r3, [sp, #40]	; 0x28
 1202374:	19e4      	adds	r4, r4, r7
 1202376:	2d07      	cmp	r5, #7
 1202378:	e886 0088 	stmia.w	r6, {r3, r7}
 120237c:	9427      	str	r4, [sp, #156]	; 0x9c
 120237e:	9526      	str	r5, [sp, #152]	; 0x98
 1202380:	f77f ae77 	ble.w	1202072 <_svfprintf_r+0x96e>
 1202384:	980c      	ldr	r0, [sp, #48]	; 0x30
 1202386:	4659      	mov	r1, fp
 1202388:	aa25      	add	r2, sp, #148	; 0x94
 120238a:	f003 fa2b 	bl	12057e4 <__ssprint_r>
 120238e:	2800      	cmp	r0, #0
 1202390:	f47f ab7b 	bne.w	1201a8a <_svfprintf_r+0x386>
 1202394:	ae32      	add	r6, sp, #200	; 0xc8
 1202396:	9c27      	ldr	r4, [sp, #156]	; 0x9c
 1202398:	9d26      	ldr	r5, [sp, #152]	; 0x98
 120239a:	e66b      	b.n	1202074 <_svfprintf_r+0x970>
 120239c:	980c      	ldr	r0, [sp, #48]	; 0x30
 120239e:	4659      	mov	r1, fp
 12023a0:	aa25      	add	r2, sp, #148	; 0x94
 12023a2:	f003 fa1f 	bl	12057e4 <__ssprint_r>
 12023a6:	2800      	cmp	r0, #0
 12023a8:	f43f ae88 	beq.w	12020bc <_svfprintf_r+0x9b8>
 12023ac:	f7ff bb6d 	b.w	1201a8a <_svfprintf_r+0x386>
 12023b0:	980c      	ldr	r0, [sp, #48]	; 0x30
 12023b2:	4659      	mov	r1, fp
 12023b4:	aa25      	add	r2, sp, #148	; 0x94
 12023b6:	9306      	str	r3, [sp, #24]
 12023b8:	f8cd c01c 	str.w	ip, [sp, #28]
 12023bc:	f003 fa12 	bl	12057e4 <__ssprint_r>
 12023c0:	9b06      	ldr	r3, [sp, #24]
 12023c2:	f8dd c01c 	ldr.w	ip, [sp, #28]
 12023c6:	2800      	cmp	r0, #0
 12023c8:	f47f ab5f 	bne.w	1201a8a <_svfprintf_r+0x386>
 12023cc:	ae32      	add	r6, sp, #200	; 0xc8
 12023ce:	9c27      	ldr	r4, [sp, #156]	; 0x9c
 12023d0:	9a26      	ldr	r2, [sp, #152]	; 0x98
 12023d2:	e542      	b.n	1201e5a <_svfprintf_r+0x756>
 12023d4:	980c      	ldr	r0, [sp, #48]	; 0x30
 12023d6:	4659      	mov	r1, fp
 12023d8:	aa25      	add	r2, sp, #148	; 0x94
 12023da:	9306      	str	r3, [sp, #24]
 12023dc:	f003 fa02 	bl	12057e4 <__ssprint_r>
 12023e0:	9b06      	ldr	r3, [sp, #24]
 12023e2:	2800      	cmp	r0, #0
 12023e4:	f47f ab51 	bne.w	1201a8a <_svfprintf_r+0x386>
 12023e8:	ae32      	add	r6, sp, #200	; 0xc8
 12023ea:	9c27      	ldr	r4, [sp, #156]	; 0x9c
 12023ec:	9a26      	ldr	r2, [sp, #152]	; 0x98
 12023ee:	e545      	b.n	1201e7c <_svfprintf_r+0x778>
 12023f0:	980c      	ldr	r0, [sp, #48]	; 0x30
 12023f2:	4659      	mov	r1, fp
 12023f4:	aa25      	add	r2, sp, #148	; 0x94
 12023f6:	f003 f9f5 	bl	12057e4 <__ssprint_r>
 12023fa:	2800      	cmp	r0, #0
 12023fc:	f47f ab45 	bne.w	1201a8a <_svfprintf_r+0x386>
 1202400:	9c27      	ldr	r4, [sp, #156]	; 0x9c
 1202402:	ae32      	add	r6, sp, #200	; 0xc8
 1202404:	e589      	b.n	1201f1a <_svfprintf_r+0x816>
 1202406:	980c      	ldr	r0, [sp, #48]	; 0x30
 1202408:	4659      	mov	r1, fp
 120240a:	aa25      	add	r2, sp, #148	; 0x94
 120240c:	f003 f9ea 	bl	12057e4 <__ssprint_r>
 1202410:	2800      	cmp	r0, #0
 1202412:	f47f ab3a 	bne.w	1201a8a <_svfprintf_r+0x386>
 1202416:	9c27      	ldr	r4, [sp, #156]	; 0x9c
 1202418:	ae32      	add	r6, sp, #200	; 0xc8
 120241a:	e4f0      	b.n	1201dfe <_svfprintf_r+0x6fa>
 120241c:	980c      	ldr	r0, [sp, #48]	; 0x30
 120241e:	4659      	mov	r1, fp
 1202420:	aa25      	add	r2, sp, #148	; 0x94
 1202422:	f003 f9df 	bl	12057e4 <__ssprint_r>
 1202426:	2800      	cmp	r0, #0
 1202428:	f47f ab2f 	bne.w	1201a8a <_svfprintf_r+0x386>
 120242c:	9c27      	ldr	r4, [sp, #156]	; 0x9c
 120242e:	ae32      	add	r6, sp, #200	; 0xc8
 1202430:	e4f4      	b.n	1201e1c <_svfprintf_r+0x718>
 1202432:	9919      	ldr	r1, [sp, #100]	; 0x64
 1202434:	960b      	str	r6, [sp, #44]	; 0x2c
 1202436:	260f      	movs	r6, #15
 1202438:	ea04 0306 	and.w	r3, r4, r6
 120243c:	0927      	lsrs	r7, r4, #4
 120243e:	0928      	lsrs	r0, r5, #4
 1202440:	18ca      	adds	r2, r1, r3
 1202442:	ea47 7405 	orr.w	r4, r7, r5, lsl #28
 1202446:	7816      	ldrb	r6, [r2, #0]
 1202448:	4605      	mov	r5, r0
 120244a:	ea54 0005 	orrs.w	r0, r4, r5
 120244e:	4677      	mov	r7, lr
 1202450:	f88e 6000 	strb.w	r6, [lr]
 1202454:	f10e 3eff 	add.w	lr, lr, #4294967295
 1202458:	d1ed      	bne.n	1202436 <_svfprintf_r+0xd32>
 120245a:	9908      	ldr	r1, [sp, #32]
 120245c:	9e0b      	ldr	r6, [sp, #44]	; 0x2c
 120245e:	1bcb      	subs	r3, r1, r7
 1202460:	930e      	str	r3, [sp, #56]	; 0x38
 1202462:	f7ff ba75 	b.w	1201950 <_svfprintf_r+0x24c>
 1202466:	2d00      	cmp	r5, #0
 1202468:	bf08      	it	eq
 120246a:	2c0a      	cmpeq	r4, #10
 120246c:	f080 814f 	bcs.w	120270e <_svfprintf_r+0x100a>
 1202470:	af42      	add	r7, sp, #264	; 0x108
 1202472:	3430      	adds	r4, #48	; 0x30
 1202474:	f807 4d41 	strb.w	r4, [r7, #-65]!
 1202478:	9c08      	ldr	r4, [sp, #32]
 120247a:	1be2      	subs	r2, r4, r7
 120247c:	920e      	str	r2, [sp, #56]	; 0x38
 120247e:	f7ff ba67 	b.w	1201950 <_svfprintf_r+0x24c>
 1202482:	2302      	movs	r3, #2
 1202484:	f7ff bb2c 	b.w	1201ae0 <_svfprintf_r+0x3dc>
 1202488:	4640      	mov	r0, r8
 120248a:	4659      	mov	r1, fp
 120248c:	aa25      	add	r2, sp, #148	; 0x94
 120248e:	f003 f9a9 	bl	12057e4 <__ssprint_r>
 1202492:	2800      	cmp	r0, #0
 1202494:	f47f aaf9 	bne.w	1201a8a <_svfprintf_r+0x386>
 1202498:	ae32      	add	r6, sp, #200	; 0xc8
 120249a:	9c27      	ldr	r4, [sp, #156]	; 0x9c
 120249c:	9b26      	ldr	r3, [sp, #152]	; 0x98
 120249e:	e6d6      	b.n	120224e <_svfprintf_r+0xb4a>
 12024a0:	980c      	ldr	r0, [sp, #48]	; 0x30
 12024a2:	4659      	mov	r1, fp
 12024a4:	aa25      	add	r2, sp, #148	; 0x94
 12024a6:	9306      	str	r3, [sp, #24]
 12024a8:	f003 f99c 	bl	12057e4 <__ssprint_r>
 12024ac:	9b06      	ldr	r3, [sp, #24]
 12024ae:	2800      	cmp	r0, #0
 12024b0:	f47f aaeb 	bne.w	1201a8a <_svfprintf_r+0x386>
 12024b4:	ae32      	add	r6, sp, #200	; 0xc8
 12024b6:	9927      	ldr	r1, [sp, #156]	; 0x9c
 12024b8:	9a26      	ldr	r2, [sp, #152]	; 0x98
 12024ba:	f7ff ba86 	b.w	12019ca <_svfprintf_r+0x2c6>
 12024be:	980c      	ldr	r0, [sp, #48]	; 0x30
 12024c0:	4659      	mov	r1, fp
 12024c2:	aa25      	add	r2, sp, #148	; 0x94
 12024c4:	f003 f98e 	bl	12057e4 <__ssprint_r>
 12024c8:	2800      	cmp	r0, #0
 12024ca:	f47f aade 	bne.w	1201a8a <_svfprintf_r+0x386>
 12024ce:	ae32      	add	r6, sp, #200	; 0xc8
 12024d0:	9927      	ldr	r1, [sp, #156]	; 0x9c
 12024d2:	9a26      	ldr	r2, [sp, #152]	; 0x98
 12024d4:	f7ff ba8c 	b.w	12019f0 <_svfprintf_r+0x2ec>
 12024d8:	01200218 	teqeq	r0, r8, lsl r2
 12024dc:	9a1e      	ldr	r2, [sp, #120]	; 0x78
 12024de:	2a00      	cmp	r2, #0
 12024e0:	f340 82b2 	ble.w	1202a48 <_svfprintf_r+0x1344>
 12024e4:	9d11      	ldr	r5, [sp, #68]	; 0x44
 12024e6:	9915      	ldr	r1, [sp, #84]	; 0x54
 12024e8:	9b11      	ldr	r3, [sp, #68]	; 0x44
 12024ea:	428d      	cmp	r5, r1
 12024ec:	bfa8      	it	ge
 12024ee:	460d      	movge	r5, r1
 12024f0:	18fa      	adds	r2, r7, r3
 12024f2:	2d00      	cmp	r5, #0
 12024f4:	920a      	str	r2, [sp, #40]	; 0x28
 12024f6:	dd0a      	ble.n	120250e <_svfprintf_r+0xe0a>
 12024f8:	9826      	ldr	r0, [sp, #152]	; 0x98
 12024fa:	1964      	adds	r4, r4, r5
 12024fc:	1c41      	adds	r1, r0, #1
 12024fe:	2907      	cmp	r1, #7
 1202500:	6037      	str	r7, [r6, #0]
 1202502:	6075      	str	r5, [r6, #4]
 1202504:	9427      	str	r4, [sp, #156]	; 0x9c
 1202506:	9126      	str	r1, [sp, #152]	; 0x98
 1202508:	f300 847f 	bgt.w	1202e0a <_svfprintf_r+0x1706>
 120250c:	3608      	adds	r6, #8
 120250e:	9b15      	ldr	r3, [sp, #84]	; 0x54
 1202510:	ea25 75e5 	bic.w	r5, r5, r5, asr #31
 1202514:	1b5d      	subs	r5, r3, r5
 1202516:	2d00      	cmp	r5, #0
 1202518:	f340 8156 	ble.w	12027c8 <_svfprintf_r+0x10c4>
 120251c:	2d10      	cmp	r5, #16
 120251e:	f340 826d 	ble.w	12029fc <_svfprintf_r+0x12f8>
 1202522:	9826      	ldr	r0, [sp, #152]	; 0x98
 1202524:	f04f 0810 	mov.w	r8, #16
 1202528:	1c43      	adds	r3, r0, #1
 120252a:	4aa1      	ldr	r2, [pc, #644]	; (12027b0 <_svfprintf_r+0x10ac>)
 120252c:	f1a5 0111 	sub.w	r1, r5, #17
 1202530:	4444      	add	r4, r8
 1202532:	2b07      	cmp	r3, #7
 1202534:	f8c6 9000 	str.w	r9, [r6]
 1202538:	f8c6 8004 	str.w	r8, [r6, #4]
 120253c:	920e      	str	r2, [sp, #56]	; 0x38
 120253e:	9427      	str	r4, [sp, #156]	; 0x9c
 1202540:	9326      	str	r3, [sp, #152]	; 0x98
 1202542:	f3c1 1c00 	ubfx	ip, r1, #4, #1
 1202546:	f300 844f 	bgt.w	1202de8 <_svfprintf_r+0x16e4>
 120254a:	3608      	adds	r6, #8
 120254c:	3d10      	subs	r5, #16
 120254e:	2d10      	cmp	r5, #16
 1202550:	f340 8257 	ble.w	1202a02 <_svfprintf_r+0x12fe>
 1202554:	f1bc 0f00 	cmp.w	ip, #0
 1202558:	d00f      	beq.n	120257a <_svfprintf_r+0xe76>
 120255a:	3301      	adds	r3, #1
 120255c:	3410      	adds	r4, #16
 120255e:	2b07      	cmp	r3, #7
 1202560:	f8c6 9000 	str.w	r9, [r6]
 1202564:	f8c6 8004 	str.w	r8, [r6, #4]
 1202568:	9427      	str	r4, [sp, #156]	; 0x9c
 120256a:	9326      	str	r3, [sp, #152]	; 0x98
 120256c:	f300 848c 	bgt.w	1202e88 <_svfprintf_r+0x1784>
 1202570:	3608      	adds	r6, #8
 1202572:	3d10      	subs	r5, #16
 1202574:	2d10      	cmp	r5, #16
 1202576:	f340 8244 	ble.w	1202a02 <_svfprintf_r+0x12fe>
 120257a:	4621      	mov	r1, r4
 120257c:	9c0c      	ldr	r4, [sp, #48]	; 0x30
 120257e:	e012      	b.n	12025a6 <_svfprintf_r+0xea2>
 1202580:	f106 0008 	add.w	r0, r6, #8
 1202584:	3301      	adds	r3, #1
 1202586:	3110      	adds	r1, #16
 1202588:	3d10      	subs	r5, #16
 120258a:	2b07      	cmp	r3, #7
 120258c:	f8c0 9000 	str.w	r9, [r0]
 1202590:	f8c0 8004 	str.w	r8, [r0, #4]
 1202594:	9326      	str	r3, [sp, #152]	; 0x98
 1202596:	9127      	str	r1, [sp, #156]	; 0x9c
 1202598:	dc1b      	bgt.n	12025d2 <_svfprintf_r+0xece>
 120259a:	f100 0608 	add.w	r6, r0, #8
 120259e:	3d10      	subs	r5, #16
 12025a0:	2d10      	cmp	r5, #16
 12025a2:	f340 840d 	ble.w	1202dc0 <_svfprintf_r+0x16bc>
 12025a6:	3301      	adds	r3, #1
 12025a8:	3110      	adds	r1, #16
 12025aa:	2b07      	cmp	r3, #7
 12025ac:	f8c6 9000 	str.w	r9, [r6]
 12025b0:	f8c6 8004 	str.w	r8, [r6, #4]
 12025b4:	9127      	str	r1, [sp, #156]	; 0x9c
 12025b6:	9326      	str	r3, [sp, #152]	; 0x98
 12025b8:	dde2      	ble.n	1202580 <_svfprintf_r+0xe7c>
 12025ba:	4620      	mov	r0, r4
 12025bc:	4659      	mov	r1, fp
 12025be:	aa25      	add	r2, sp, #148	; 0x94
 12025c0:	f003 f910 	bl	12057e4 <__ssprint_r>
 12025c4:	2800      	cmp	r0, #0
 12025c6:	f47f aa60 	bne.w	1201a8a <_svfprintf_r+0x386>
 12025ca:	9927      	ldr	r1, [sp, #156]	; 0x9c
 12025cc:	9b26      	ldr	r3, [sp, #152]	; 0x98
 12025ce:	a832      	add	r0, sp, #200	; 0xc8
 12025d0:	e7d8      	b.n	1202584 <_svfprintf_r+0xe80>
 12025d2:	4620      	mov	r0, r4
 12025d4:	4659      	mov	r1, fp
 12025d6:	aa25      	add	r2, sp, #148	; 0x94
 12025d8:	f003 f904 	bl	12057e4 <__ssprint_r>
 12025dc:	2800      	cmp	r0, #0
 12025de:	f47f aa54 	bne.w	1201a8a <_svfprintf_r+0x386>
 12025e2:	ae32      	add	r6, sp, #200	; 0xc8
 12025e4:	9927      	ldr	r1, [sp, #156]	; 0x9c
 12025e6:	9b26      	ldr	r3, [sp, #152]	; 0x98
 12025e8:	e7d9      	b.n	120259e <_svfprintf_r+0xe9a>
 12025ea:	9c0a      	ldr	r4, [sp, #40]	; 0x28
 12025ec:	af32      	add	r7, sp, #200	; 0xc8
 12025ee:	940e      	str	r4, [sp, #56]	; 0x38
 12025f0:	f7ff b9ae 	b.w	1201950 <_svfprintf_r+0x24c>
 12025f4:	980c      	ldr	r0, [sp, #48]	; 0x30
 12025f6:	4659      	mov	r1, fp
 12025f8:	aa25      	add	r2, sp, #148	; 0x94
 12025fa:	f003 f8f3 	bl	12057e4 <__ssprint_r>
 12025fe:	2800      	cmp	r0, #0
 1202600:	f47f aa43 	bne.w	1201a8a <_svfprintf_r+0x386>
 1202604:	9c27      	ldr	r4, [sp, #156]	; 0x9c
 1202606:	ae32      	add	r6, sp, #200	; 0xc8
 1202608:	f7ff bbe8 	b.w	1201ddc <_svfprintf_r+0x6d8>
 120260c:	9f11      	ldr	r7, [sp, #68]	; 0x44
 120260e:	3f01      	subs	r7, #1
 1202610:	2f00      	cmp	r7, #0
 1202612:	f77f ad2f 	ble.w	1202074 <_svfprintf_r+0x970>
 1202616:	2f10      	cmp	r7, #16
 1202618:	f77f aea8 	ble.w	120236c <_svfprintf_r+0xc68>
 120261c:	9b11      	ldr	r3, [sp, #68]	; 0x44
 120261e:	f04f 0810 	mov.w	r8, #16
 1202622:	3501      	adds	r5, #1
 1202624:	4962      	ldr	r1, [pc, #392]	; (12027b0 <_svfprintf_r+0x10ac>)
 1202626:	3b12      	subs	r3, #18
 1202628:	4444      	add	r4, r8
 120262a:	2d07      	cmp	r5, #7
 120262c:	f8c6 9000 	str.w	r9, [r6]
 1202630:	f8c6 8004 	str.w	r8, [r6, #4]
 1202634:	910a      	str	r1, [sp, #40]	; 0x28
 1202636:	9427      	str	r4, [sp, #156]	; 0x9c
 1202638:	9526      	str	r5, [sp, #152]	; 0x98
 120263a:	f3c3 1300 	ubfx	r3, r3, #4, #1
 120263e:	f300 83b1 	bgt.w	1202da4 <_svfprintf_r+0x16a0>
 1202642:	3608      	adds	r6, #8
 1202644:	3f10      	subs	r7, #16
 1202646:	2f10      	cmp	r7, #16
 1202648:	f77f ae92 	ble.w	1202370 <_svfprintf_r+0xc6c>
 120264c:	b17b      	cbz	r3, 120266e <_svfprintf_r+0xf6a>
 120264e:	3501      	adds	r5, #1
 1202650:	3410      	adds	r4, #16
 1202652:	2d07      	cmp	r5, #7
 1202654:	f8c6 9000 	str.w	r9, [r6]
 1202658:	f8c6 8004 	str.w	r8, [r6, #4]
 120265c:	9427      	str	r4, [sp, #156]	; 0x9c
 120265e:	9526      	str	r5, [sp, #152]	; 0x98
 1202660:	f300 83b6 	bgt.w	1202dd0 <_svfprintf_r+0x16cc>
 1202664:	3608      	adds	r6, #8
 1202666:	3f10      	subs	r7, #16
 1202668:	2f10      	cmp	r7, #16
 120266a:	f77f ae81 	ble.w	1202370 <_svfprintf_r+0xc6c>
 120266e:	4622      	mov	r2, r4
 1202670:	9c0c      	ldr	r4, [sp, #48]	; 0x30
 1202672:	e010      	b.n	1202696 <_svfprintf_r+0xf92>
 1202674:	3608      	adds	r6, #8
 1202676:	3501      	adds	r5, #1
 1202678:	3210      	adds	r2, #16
 120267a:	3f10      	subs	r7, #16
 120267c:	2d07      	cmp	r5, #7
 120267e:	f8c6 9000 	str.w	r9, [r6]
 1202682:	f8c6 8004 	str.w	r8, [r6, #4]
 1202686:	9227      	str	r2, [sp, #156]	; 0x9c
 1202688:	9526      	str	r5, [sp, #152]	; 0x98
 120268a:	dc1a      	bgt.n	12026c2 <_svfprintf_r+0xfbe>
 120268c:	3608      	adds	r6, #8
 120268e:	3f10      	subs	r7, #16
 1202690:	2f10      	cmp	r7, #16
 1202692:	f340 835f 	ble.w	1202d54 <_svfprintf_r+0x1650>
 1202696:	3501      	adds	r5, #1
 1202698:	3210      	adds	r2, #16
 120269a:	2d07      	cmp	r5, #7
 120269c:	f8c6 9000 	str.w	r9, [r6]
 12026a0:	f8c6 8004 	str.w	r8, [r6, #4]
 12026a4:	9227      	str	r2, [sp, #156]	; 0x9c
 12026a6:	9526      	str	r5, [sp, #152]	; 0x98
 12026a8:	dde4      	ble.n	1202674 <_svfprintf_r+0xf70>
 12026aa:	4620      	mov	r0, r4
 12026ac:	4659      	mov	r1, fp
 12026ae:	aa25      	add	r2, sp, #148	; 0x94
 12026b0:	f003 f898 	bl	12057e4 <__ssprint_r>
 12026b4:	2800      	cmp	r0, #0
 12026b6:	f47f a9e8 	bne.w	1201a8a <_svfprintf_r+0x386>
 12026ba:	9a27      	ldr	r2, [sp, #156]	; 0x9c
 12026bc:	9d26      	ldr	r5, [sp, #152]	; 0x98
 12026be:	ae32      	add	r6, sp, #200	; 0xc8
 12026c0:	e7d9      	b.n	1202676 <_svfprintf_r+0xf72>
 12026c2:	4620      	mov	r0, r4
 12026c4:	4659      	mov	r1, fp
 12026c6:	aa25      	add	r2, sp, #148	; 0x94
 12026c8:	f003 f88c 	bl	12057e4 <__ssprint_r>
 12026cc:	2800      	cmp	r0, #0
 12026ce:	f47f a9dc 	bne.w	1201a8a <_svfprintf_r+0x386>
 12026d2:	ae32      	add	r6, sp, #200	; 0xc8
 12026d4:	9a27      	ldr	r2, [sp, #156]	; 0x9c
 12026d6:	9d26      	ldr	r5, [sp, #152]	; 0x98
 12026d8:	e7d9      	b.n	120268e <_svfprintf_r+0xf8a>
 12026da:	4935      	ldr	r1, [pc, #212]	; (12027b0 <_svfprintf_r+0x10ac>)
 12026dc:	9b26      	ldr	r3, [sp, #152]	; 0x98
 12026de:	910a      	str	r1, [sp, #40]	; 0x28
 12026e0:	3301      	adds	r3, #1
 12026e2:	9f0a      	ldr	r7, [sp, #40]	; 0x28
 12026e4:	1964      	adds	r4, r4, r5
 12026e6:	2b07      	cmp	r3, #7
 12026e8:	6037      	str	r7, [r6, #0]
 12026ea:	6075      	str	r5, [r6, #4]
 12026ec:	9427      	str	r4, [sp, #156]	; 0x9c
 12026ee:	9326      	str	r3, [sp, #152]	; 0x98
 12026f0:	f77f ac23 	ble.w	1201f3a <_svfprintf_r+0x836>
 12026f4:	e4c9      	b.n	120208a <_svfprintf_r+0x986>
 12026f6:	980c      	ldr	r0, [sp, #48]	; 0x30
 12026f8:	4659      	mov	r1, fp
 12026fa:	aa25      	add	r2, sp, #148	; 0x94
 12026fc:	f003 f872 	bl	12057e4 <__ssprint_r>
 1202700:	2800      	cmp	r0, #0
 1202702:	f47f a9c2 	bne.w	1201a8a <_svfprintf_r+0x386>
 1202706:	ae32      	add	r6, sp, #200	; 0xc8
 1202708:	9c27      	ldr	r4, [sp, #156]	; 0x9c
 120270a:	9b26      	ldr	r3, [sp, #152]	; 0x98
 120270c:	e439      	b.n	1201f82 <_svfprintf_r+0x87e>
 120270e:	f10d 0cc7 	add.w	ip, sp, #199	; 0xc7
 1202712:	960b      	str	r6, [sp, #44]	; 0x2c
 1202714:	4666      	mov	r6, ip
 1202716:	4620      	mov	r0, r4
 1202718:	4629      	mov	r1, r5
 120271a:	220a      	movs	r2, #10
 120271c:	2300      	movs	r3, #0
 120271e:	f7fe fa85 	bl	1200c2c <__aeabi_uldivmod>
 1202722:	3230      	adds	r2, #48	; 0x30
 1202724:	7032      	strb	r2, [r6, #0]
 1202726:	4620      	mov	r0, r4
 1202728:	4629      	mov	r1, r5
 120272a:	220a      	movs	r2, #10
 120272c:	2300      	movs	r3, #0
 120272e:	f7fe fa7d 	bl	1200c2c <__aeabi_uldivmod>
 1202732:	4604      	mov	r4, r0
 1202734:	460d      	mov	r5, r1
 1202736:	4637      	mov	r7, r6
 1202738:	3e01      	subs	r6, #1
 120273a:	ea54 0005 	orrs.w	r0, r4, r5
 120273e:	d1ea      	bne.n	1202716 <_svfprintf_r+0x1012>
 1202740:	9908      	ldr	r1, [sp, #32]
 1202742:	9e0b      	ldr	r6, [sp, #44]	; 0x2c
 1202744:	1bcb      	subs	r3, r1, r7
 1202746:	930e      	str	r3, [sp, #56]	; 0x38
 1202748:	f7ff b902 	b.w	1201950 <_svfprintf_r+0x24c>
 120274c:	980c      	ldr	r0, [sp, #48]	; 0x30
 120274e:	4659      	mov	r1, fp
 1202750:	aa25      	add	r2, sp, #148	; 0x94
 1202752:	f003 f847 	bl	12057e4 <__ssprint_r>
 1202756:	2800      	cmp	r0, #0
 1202758:	f47f a997 	bne.w	1201a8a <_svfprintf_r+0x386>
 120275c:	ae32      	add	r6, sp, #200	; 0xc8
 120275e:	9c27      	ldr	r4, [sp, #156]	; 0x9c
 1202760:	9b26      	ldr	r3, [sp, #152]	; 0x98
 1202762:	e423      	b.n	1201fac <_svfprintf_r+0x8a8>
 1202764:	9d10      	ldr	r5, [sp, #64]	; 0x40
 1202766:	682b      	ldr	r3, [r5, #0]
 1202768:	1d29      	adds	r1, r5, #4
 120276a:	17dd      	asrs	r5, r3, #31
 120276c:	461a      	mov	r2, r3
 120276e:	461c      	mov	r4, r3
 1202770:	462b      	mov	r3, r5
 1202772:	2a00      	cmp	r2, #0
 1202774:	f173 0000 	sbcs.w	r0, r3, #0
 1202778:	9110      	str	r1, [sp, #64]	; 0x40
 120277a:	f6bf a8cb 	bge.w	1201914 <_svfprintf_r+0x210>
 120277e:	222d      	movs	r2, #45	; 0x2d
 1202780:	4264      	negs	r4, r4
 1202782:	eb65 0545 	sbc.w	r5, r5, r5, lsl #1
 1202786:	f88d 2073 	strb.w	r2, [sp, #115]	; 0x73
 120278a:	2301      	movs	r3, #1
 120278c:	f7ff b8c3 	b.w	1201916 <_svfprintf_r+0x212>
 1202790:	9910      	ldr	r1, [sp, #64]	; 0x40
 1202792:	1d0d      	adds	r5, r1, #4
 1202794:	680c      	ldr	r4, [r1, #0]
 1202796:	9510      	str	r5, [sp, #64]	; 0x40
 1202798:	2500      	movs	r5, #0
 120279a:	f7ff b9a1 	b.w	1201ae0 <_svfprintf_r+0x3dc>
 120279e:	9c10      	ldr	r4, [sp, #64]	; 0x40
 12027a0:	6825      	ldr	r5, [r4, #0]
 12027a2:	1d20      	adds	r0, r4, #4
 12027a4:	9010      	str	r0, [sp, #64]	; 0x40
 12027a6:	462c      	mov	r4, r5
 12027a8:	2500      	movs	r5, #0
 12027aa:	f7ff ba22 	b.w	1201bf2 <_svfprintf_r+0x4ee>
 12027ae:	bf00      	nop
 12027b0:	01200218 	teqeq	r0, r8, lsl r2
 12027b4:	980c      	ldr	r0, [sp, #48]	; 0x30
 12027b6:	4659      	mov	r1, fp
 12027b8:	aa25      	add	r2, sp, #148	; 0x94
 12027ba:	f003 f813 	bl	12057e4 <__ssprint_r>
 12027be:	2800      	cmp	r0, #0
 12027c0:	f47f a963 	bne.w	1201a8a <_svfprintf_r+0x386>
 12027c4:	9c27      	ldr	r4, [sp, #156]	; 0x9c
 12027c6:	ae32      	add	r6, sp, #200	; 0xc8
 12027c8:	9b1e      	ldr	r3, [sp, #120]	; 0x78
 12027ca:	9811      	ldr	r0, [sp, #68]	; 0x44
 12027cc:	9915      	ldr	r1, [sp, #84]	; 0x54
 12027ce:	4283      	cmp	r3, r0
 12027d0:	440f      	add	r7, r1
 12027d2:	db70      	blt.n	12028b6 <_svfprintf_r+0x11b2>
 12027d4:	9a09      	ldr	r2, [sp, #36]	; 0x24
 12027d6:	07d1      	lsls	r1, r2, #31
 12027d8:	d46d      	bmi.n	12028b6 <_svfprintf_r+0x11b2>
 12027da:	9d0a      	ldr	r5, [sp, #40]	; 0x28
 12027dc:	9a11      	ldr	r2, [sp, #68]	; 0x44
 12027de:	1bed      	subs	r5, r5, r7
 12027e0:	1ad3      	subs	r3, r2, r3
 12027e2:	42ab      	cmp	r3, r5
 12027e4:	bfb8      	it	lt
 12027e6:	461d      	movlt	r5, r3
 12027e8:	2d00      	cmp	r5, #0
 12027ea:	dd0a      	ble.n	1202802 <_svfprintf_r+0x10fe>
 12027ec:	9926      	ldr	r1, [sp, #152]	; 0x98
 12027ee:	1964      	adds	r4, r4, r5
 12027f0:	1c48      	adds	r0, r1, #1
 12027f2:	2807      	cmp	r0, #7
 12027f4:	6037      	str	r7, [r6, #0]
 12027f6:	6075      	str	r5, [r6, #4]
 12027f8:	9427      	str	r4, [sp, #156]	; 0x9c
 12027fa:	9026      	str	r0, [sp, #152]	; 0x98
 12027fc:	f300 835d 	bgt.w	1202eba <_svfprintf_r+0x17b6>
 1202800:	3608      	adds	r6, #8
 1202802:	ea25 75e5 	bic.w	r5, r5, r5, asr #31
 1202806:	1b5d      	subs	r5, r3, r5
 1202808:	2d00      	cmp	r5, #0
 120280a:	f77f ab97 	ble.w	1201f3c <_svfprintf_r+0x838>
 120280e:	2d10      	cmp	r5, #16
 1202810:	f77f af63 	ble.w	12026da <_svfprintf_r+0xfd6>
 1202814:	9a26      	ldr	r2, [sp, #152]	; 0x98
 1202816:	2710      	movs	r7, #16
 1202818:	1c53      	adds	r3, r2, #1
 120281a:	4988      	ldr	r1, [pc, #544]	; (1202a3c <_svfprintf_r+0x1338>)
 120281c:	f1a5 0811 	sub.w	r8, r5, #17
 1202820:	19e4      	adds	r4, r4, r7
 1202822:	2b07      	cmp	r3, #7
 1202824:	f8c6 9000 	str.w	r9, [r6]
 1202828:	6077      	str	r7, [r6, #4]
 120282a:	910a      	str	r1, [sp, #40]	; 0x28
 120282c:	9427      	str	r4, [sp, #156]	; 0x9c
 120282e:	9326      	str	r3, [sp, #152]	; 0x98
 1202830:	f3c8 1800 	ubfx	r8, r8, #4, #1
 1202834:	f300 8335 	bgt.w	1202ea2 <_svfprintf_r+0x179e>
 1202838:	3608      	adds	r6, #8
 120283a:	3d10      	subs	r5, #16
 120283c:	2d10      	cmp	r5, #16
 120283e:	f77f af4f 	ble.w	12026e0 <_svfprintf_r+0xfdc>
 1202842:	f1b8 0f00 	cmp.w	r8, #0
 1202846:	d00e      	beq.n	1202866 <_svfprintf_r+0x1162>
 1202848:	3301      	adds	r3, #1
 120284a:	3410      	adds	r4, #16
 120284c:	2b07      	cmp	r3, #7
 120284e:	f8c6 9000 	str.w	r9, [r6]
 1202852:	6077      	str	r7, [r6, #4]
 1202854:	9427      	str	r4, [sp, #156]	; 0x9c
 1202856:	9326      	str	r3, [sp, #152]	; 0x98
 1202858:	f300 834e 	bgt.w	1202ef8 <_svfprintf_r+0x17f4>
 120285c:	3608      	adds	r6, #8
 120285e:	3d10      	subs	r5, #16
 1202860:	2d10      	cmp	r5, #16
 1202862:	f77f af3d 	ble.w	12026e0 <_svfprintf_r+0xfdc>
 1202866:	f8dd 8030 	ldr.w	r8, [sp, #48]	; 0x30
 120286a:	e00f      	b.n	120288c <_svfprintf_r+0x1188>
 120286c:	3608      	adds	r6, #8
 120286e:	1c43      	adds	r3, r0, #1
 1202870:	3410      	adds	r4, #16
 1202872:	3d10      	subs	r5, #16
 1202874:	2b07      	cmp	r3, #7
 1202876:	f8c6 9000 	str.w	r9, [r6]
 120287a:	6077      	str	r7, [r6, #4]
 120287c:	9326      	str	r3, [sp, #152]	; 0x98
 120287e:	9427      	str	r4, [sp, #156]	; 0x9c
 1202880:	dc28      	bgt.n	12028d4 <_svfprintf_r+0x11d0>
 1202882:	3608      	adds	r6, #8
 1202884:	3d10      	subs	r5, #16
 1202886:	2d10      	cmp	r5, #16
 1202888:	f77f af2a 	ble.w	12026e0 <_svfprintf_r+0xfdc>
 120288c:	1c58      	adds	r0, r3, #1
 120288e:	3410      	adds	r4, #16
 1202890:	2807      	cmp	r0, #7
 1202892:	f8c6 9000 	str.w	r9, [r6]
 1202896:	6077      	str	r7, [r6, #4]
 1202898:	9427      	str	r4, [sp, #156]	; 0x9c
 120289a:	9026      	str	r0, [sp, #152]	; 0x98
 120289c:	dde6      	ble.n	120286c <_svfprintf_r+0x1168>
 120289e:	4640      	mov	r0, r8
 12028a0:	4659      	mov	r1, fp
 12028a2:	aa25      	add	r2, sp, #148	; 0x94
 12028a4:	f002 ff9e 	bl	12057e4 <__ssprint_r>
 12028a8:	2800      	cmp	r0, #0
 12028aa:	f47f a8ee 	bne.w	1201a8a <_svfprintf_r+0x386>
 12028ae:	9c27      	ldr	r4, [sp, #156]	; 0x9c
 12028b0:	9826      	ldr	r0, [sp, #152]	; 0x98
 12028b2:	ae32      	add	r6, sp, #200	; 0xc8
 12028b4:	e7db      	b.n	120286e <_svfprintf_r+0x116a>
 12028b6:	9826      	ldr	r0, [sp, #152]	; 0x98
 12028b8:	9918      	ldr	r1, [sp, #96]	; 0x60
 12028ba:	1c42      	adds	r2, r0, #1
 12028bc:	1864      	adds	r4, r4, r1
 12028be:	9818      	ldr	r0, [sp, #96]	; 0x60
 12028c0:	9914      	ldr	r1, [sp, #80]	; 0x50
 12028c2:	2a07      	cmp	r2, #7
 12028c4:	6031      	str	r1, [r6, #0]
 12028c6:	6070      	str	r0, [r6, #4]
 12028c8:	9427      	str	r4, [sp, #156]	; 0x9c
 12028ca:	9226      	str	r2, [sp, #152]	; 0x98
 12028cc:	f300 82b6 	bgt.w	1202e3c <_svfprintf_r+0x1738>
 12028d0:	3608      	adds	r6, #8
 12028d2:	e782      	b.n	12027da <_svfprintf_r+0x10d6>
 12028d4:	4640      	mov	r0, r8
 12028d6:	4659      	mov	r1, fp
 12028d8:	aa25      	add	r2, sp, #148	; 0x94
 12028da:	f002 ff83 	bl	12057e4 <__ssprint_r>
 12028de:	2800      	cmp	r0, #0
 12028e0:	f47f a8d3 	bne.w	1201a8a <_svfprintf_r+0x386>
 12028e4:	ae32      	add	r6, sp, #200	; 0xc8
 12028e6:	9c27      	ldr	r4, [sp, #156]	; 0x9c
 12028e8:	9b26      	ldr	r3, [sp, #152]	; 0x98
 12028ea:	e7cb      	b.n	1202884 <_svfprintf_r+0x1180>
 12028ec:	980c      	ldr	r0, [sp, #48]	; 0x30
 12028ee:	4659      	mov	r1, fp
 12028f0:	aa25      	add	r2, sp, #148	; 0x94
 12028f2:	9306      	str	r3, [sp, #24]
 12028f4:	f8cd c01c 	str.w	ip, [sp, #28]
 12028f8:	f002 ff74 	bl	12057e4 <__ssprint_r>
 12028fc:	9b06      	ldr	r3, [sp, #24]
 12028fe:	f8dd c01c 	ldr.w	ip, [sp, #28]
 1202902:	2800      	cmp	r0, #0
 1202904:	f47f a8c1 	bne.w	1201a8a <_svfprintf_r+0x386>
 1202908:	ae32      	add	r6, sp, #200	; 0xc8
 120290a:	9c27      	ldr	r4, [sp, #156]	; 0x9c
 120290c:	9a26      	ldr	r2, [sp, #152]	; 0x98
 120290e:	e4d3      	b.n	12022b8 <_svfprintf_r+0xbb4>
 1202910:	9a09      	ldr	r2, [sp, #36]	; 0x24
 1202912:	07d2      	lsls	r2, r2, #31
 1202914:	f53f ab83 	bmi.w	120201e <_svfprintf_r+0x91a>
 1202918:	6037      	str	r7, [r6, #0]
 120291a:	2001      	movs	r0, #1
 120291c:	f7ff bba3 	b.w	1202066 <_svfprintf_r+0x962>
 1202920:	980c      	ldr	r0, [sp, #48]	; 0x30
 1202922:	4659      	mov	r1, fp
 1202924:	aa25      	add	r2, sp, #148	; 0x94
 1202926:	9306      	str	r3, [sp, #24]
 1202928:	f002 ff5c 	bl	12057e4 <__ssprint_r>
 120292c:	9b06      	ldr	r3, [sp, #24]
 120292e:	2800      	cmp	r0, #0
 1202930:	f47f a8ab 	bne.w	1201a8a <_svfprintf_r+0x386>
 1202934:	ae32      	add	r6, sp, #200	; 0xc8
 1202936:	9c27      	ldr	r4, [sp, #156]	; 0x9c
 1202938:	9a26      	ldr	r2, [sp, #152]	; 0x98
 120293a:	e4ce      	b.n	12022da <_svfprintf_r+0xbd6>
 120293c:	980c      	ldr	r0, [sp, #48]	; 0x30
 120293e:	4659      	mov	r1, fp
 1202940:	aa25      	add	r2, sp, #148	; 0x94
 1202942:	f002 ff4f 	bl	12057e4 <__ssprint_r>
 1202946:	2800      	cmp	r0, #0
 1202948:	f47f a89f 	bne.w	1201a8a <_svfprintf_r+0x386>
 120294c:	9c27      	ldr	r4, [sp, #156]	; 0x9c
 120294e:	9d26      	ldr	r5, [sp, #152]	; 0x98
 1202950:	ae32      	add	r6, sp, #200	; 0xc8
 1202952:	f7ff bb6d 	b.w	1202030 <_svfprintf_r+0x92c>
 1202956:	980c      	ldr	r0, [sp, #48]	; 0x30
 1202958:	4659      	mov	r1, fp
 120295a:	aa25      	add	r2, sp, #148	; 0x94
 120295c:	f002 ff42 	bl	12057e4 <__ssprint_r>
 1202960:	2800      	cmp	r0, #0
 1202962:	f47f a892 	bne.w	1201a8a <_svfprintf_r+0x386>
 1202966:	9c27      	ldr	r4, [sp, #156]	; 0x9c
 1202968:	9d26      	ldr	r5, [sp, #152]	; 0x98
 120296a:	ae32      	add	r6, sp, #200	; 0xc8
 120296c:	f7ff bb6c 	b.w	1202048 <_svfprintf_r+0x944>
 1202970:	9f0a      	ldr	r7, [sp, #40]	; 0x28
 1202972:	970e      	str	r7, [sp, #56]	; 0x38
 1202974:	af32      	add	r7, sp, #200	; 0xc8
 1202976:	f7fe bfeb 	b.w	1201950 <_svfprintf_r+0x24c>
 120297a:	980c      	ldr	r0, [sp, #48]	; 0x30
 120297c:	4659      	mov	r1, fp
 120297e:	aa25      	add	r2, sp, #148	; 0x94
 1202980:	f002 ff30 	bl	12057e4 <__ssprint_r>
 1202984:	2800      	cmp	r0, #0
 1202986:	f47f a880 	bne.w	1201a8a <_svfprintf_r+0x386>
 120298a:	9c27      	ldr	r4, [sp, #156]	; 0x9c
 120298c:	ae32      	add	r6, sp, #200	; 0xc8
 120298e:	f7ff ba49 	b.w	1201e24 <_svfprintf_r+0x720>
 1202992:	f002 fee1 	bl	1205758 <__fpclassifyd>
 1202996:	2800      	cmp	r0, #0
 1202998:	f040 80e4 	bne.w	1202b64 <_svfprintf_r+0x1460>
 120299c:	2703      	movs	r7, #3
 120299e:	9a09      	ldr	r2, [sp, #36]	; 0x24
 12029a0:	4b27      	ldr	r3, [pc, #156]	; (1202a40 <_svfprintf_r+0x133c>)
 12029a2:	970b      	str	r7, [sp, #44]	; 0x2c
 12029a4:	4f27      	ldr	r7, [pc, #156]	; (1202a44 <_svfprintf_r+0x1340>)
 12029a6:	f022 0180 	bic.w	r1, r2, #128	; 0x80
 12029aa:	2403      	movs	r4, #3
 12029ac:	f1b8 0f47 	cmp.w	r8, #71	; 0x47
 12029b0:	bfd8      	it	le
 12029b2:	461f      	movle	r7, r3
 12029b4:	9012      	str	r0, [sp, #72]	; 0x48
 12029b6:	9109      	str	r1, [sp, #36]	; 0x24
 12029b8:	f89d 3073 	ldrb.w	r3, [sp, #115]	; 0x73
 12029bc:	940e      	str	r4, [sp, #56]	; 0x38
 12029be:	9015      	str	r0, [sp, #84]	; 0x54
 12029c0:	f7fe bfd1 	b.w	1201966 <_svfprintf_r+0x262>
 12029c4:	9909      	ldr	r1, [sp, #36]	; 0x24
 12029c6:	064b      	lsls	r3, r1, #25
 12029c8:	f140 81b2 	bpl.w	1202d30 <_svfprintf_r+0x162c>
 12029cc:	9a10      	ldr	r2, [sp, #64]	; 0x40
 12029ce:	2301      	movs	r3, #1
 12029d0:	1d11      	adds	r1, r2, #4
 12029d2:	8814      	ldrh	r4, [r2, #0]
 12029d4:	2500      	movs	r5, #0
 12029d6:	9110      	str	r1, [sp, #64]	; 0x40
 12029d8:	f7ff b882 	b.w	1201ae0 <_svfprintf_r+0x3dc>
 12029dc:	9f09      	ldr	r7, [sp, #36]	; 0x24
 12029de:	06f8      	lsls	r0, r7, #27
 12029e0:	f140 81ab 	bpl.w	1202d3a <_svfprintf_r+0x1636>
 12029e4:	9c10      	ldr	r4, [sp, #64]	; 0x40
 12029e6:	9a0f      	ldr	r2, [sp, #60]	; 0x3c
 12029e8:	6821      	ldr	r1, [r4, #0]
 12029ea:	1d27      	adds	r7, r4, #4
 12029ec:	9710      	str	r7, [sp, #64]	; 0x40
 12029ee:	600a      	str	r2, [r1, #0]
 12029f0:	f7fe beb2 	b.w	1201758 <_svfprintf_r+0x54>
 12029f4:	f89a 8000 	ldrb.w	r8, [sl]
 12029f8:	f7fe bee5 	b.w	12017c6 <_svfprintf_r+0xc2>
 12029fc:	4a0f      	ldr	r2, [pc, #60]	; (1202a3c <_svfprintf_r+0x1338>)
 12029fe:	9b26      	ldr	r3, [sp, #152]	; 0x98
 1202a00:	920e      	str	r2, [sp, #56]	; 0x38
 1202a02:	1c5a      	adds	r2, r3, #1
 1202a04:	990e      	ldr	r1, [sp, #56]	; 0x38
 1202a06:	1964      	adds	r4, r4, r5
 1202a08:	2a07      	cmp	r2, #7
 1202a0a:	e886 0022 	stmia.w	r6, {r1, r5}
 1202a0e:	9427      	str	r4, [sp, #156]	; 0x9c
 1202a10:	9226      	str	r2, [sp, #152]	; 0x98
 1202a12:	f73f aecf 	bgt.w	12027b4 <_svfprintf_r+0x10b0>
 1202a16:	3608      	adds	r6, #8
 1202a18:	e6d6      	b.n	12027c8 <_svfprintf_r+0x10c4>
 1202a1a:	4908      	ldr	r1, [pc, #32]	; (1202a3c <_svfprintf_r+0x1338>)
 1202a1c:	9a26      	ldr	r2, [sp, #152]	; 0x98
 1202a1e:	910a      	str	r1, [sp, #40]	; 0x28
 1202a20:	f7ff ba70 	b.w	1201f04 <_svfprintf_r+0x800>
 1202a24:	980c      	ldr	r0, [sp, #48]	; 0x30
 1202a26:	4659      	mov	r1, fp
 1202a28:	aa25      	add	r2, sp, #148	; 0x94
 1202a2a:	f002 fedb 	bl	12057e4 <__ssprint_r>
 1202a2e:	2800      	cmp	r0, #0
 1202a30:	f47f a82b 	bne.w	1201a8a <_svfprintf_r+0x386>
 1202a34:	9c27      	ldr	r4, [sp, #156]	; 0x9c
 1202a36:	ae32      	add	r6, sp, #200	; 0xc8
 1202a38:	f7ff bbab 	b.w	1202192 <_svfprintf_r+0xa8e>
 1202a3c:	01200218 	teqeq	r0, r8, lsl r2
 1202a40:	01206174 	teqeq	r0, r4, ror r1
 1202a44:	01206178 	teqeq	r0, r8, ror r1
 1202a48:	9926      	ldr	r1, [sp, #152]	; 0x98
 1202a4a:	4bb7      	ldr	r3, [pc, #732]	; (1202d28 <_svfprintf_r+0x1624>)
 1202a4c:	1c48      	adds	r0, r1, #1
 1202a4e:	3401      	adds	r4, #1
 1202a50:	2101      	movs	r1, #1
 1202a52:	2807      	cmp	r0, #7
 1202a54:	6033      	str	r3, [r6, #0]
 1202a56:	6071      	str	r1, [r6, #4]
 1202a58:	9427      	str	r4, [sp, #156]	; 0x9c
 1202a5a:	9026      	str	r0, [sp, #152]	; 0x98
 1202a5c:	f300 8149 	bgt.w	1202cf2 <_svfprintf_r+0x15ee>
 1202a60:	3608      	adds	r6, #8
 1202a62:	b92a      	cbnz	r2, 1202a70 <_svfprintf_r+0x136c>
 1202a64:	9811      	ldr	r0, [sp, #68]	; 0x44
 1202a66:	b918      	cbnz	r0, 1202a70 <_svfprintf_r+0x136c>
 1202a68:	9b09      	ldr	r3, [sp, #36]	; 0x24
 1202a6a:	07d8      	lsls	r0, r3, #31
 1202a6c:	f57f aa66 	bpl.w	1201f3c <_svfprintf_r+0x838>
 1202a70:	9826      	ldr	r0, [sp, #152]	; 0x98
 1202a72:	9918      	ldr	r1, [sp, #96]	; 0x60
 1202a74:	1c43      	adds	r3, r0, #1
 1202a76:	1864      	adds	r4, r4, r1
 1202a78:	9818      	ldr	r0, [sp, #96]	; 0x60
 1202a7a:	9914      	ldr	r1, [sp, #80]	; 0x50
 1202a7c:	2b07      	cmp	r3, #7
 1202a7e:	6031      	str	r1, [r6, #0]
 1202a80:	6070      	str	r0, [r6, #4]
 1202a82:	9427      	str	r4, [sp, #156]	; 0x9c
 1202a84:	9326      	str	r3, [sp, #152]	; 0x98
 1202a86:	f300 82c7 	bgt.w	1203018 <_svfprintf_r+0x1914>
 1202a8a:	3608      	adds	r6, #8
 1202a8c:	f1c2 0800 	rsb	r8, r2, #0
 1202a90:	f1b8 0f00 	cmp.w	r8, #0
 1202a94:	f340 817a 	ble.w	1202d8c <_svfprintf_r+0x1688>
 1202a98:	f1b8 0f10 	cmp.w	r8, #16
 1202a9c:	f340 81da 	ble.w	1202e54 <_svfprintf_r+0x1750>
 1202aa0:	2510      	movs	r5, #16
 1202aa2:	3301      	adds	r3, #1
 1202aa4:	f1a8 0211 	sub.w	r2, r8, #17
 1202aa8:	48a0      	ldr	r0, [pc, #640]	; (1202d2c <_svfprintf_r+0x1628>)
 1202aaa:	1964      	adds	r4, r4, r5
 1202aac:	f3c2 1100 	ubfx	r1, r2, #4, #1
 1202ab0:	2b07      	cmp	r3, #7
 1202ab2:	f8c6 9000 	str.w	r9, [r6]
 1202ab6:	6075      	str	r5, [r6, #4]
 1202ab8:	900a      	str	r0, [sp, #40]	; 0x28
 1202aba:	9427      	str	r4, [sp, #156]	; 0x9c
 1202abc:	9326      	str	r3, [sp, #152]	; 0x98
 1202abe:	910e      	str	r1, [sp, #56]	; 0x38
 1202ac0:	f300 82da 	bgt.w	1203078 <_svfprintf_r+0x1974>
 1202ac4:	3608      	adds	r6, #8
 1202ac6:	f1a8 0810 	sub.w	r8, r8, #16
 1202aca:	f1b8 0f10 	cmp.w	r8, #16
 1202ace:	f340 81c3 	ble.w	1202e58 <_svfprintf_r+0x1754>
 1202ad2:	9a0e      	ldr	r2, [sp, #56]	; 0x38
 1202ad4:	b182      	cbz	r2, 1202af8 <_svfprintf_r+0x13f4>
 1202ad6:	3301      	adds	r3, #1
 1202ad8:	3410      	adds	r4, #16
 1202ada:	2b07      	cmp	r3, #7
 1202adc:	f8c6 9000 	str.w	r9, [r6]
 1202ae0:	6075      	str	r5, [r6, #4]
 1202ae2:	9427      	str	r4, [sp, #156]	; 0x9c
 1202ae4:	9326      	str	r3, [sp, #152]	; 0x98
 1202ae6:	f300 830f 	bgt.w	1203108 <_svfprintf_r+0x1a04>
 1202aea:	3608      	adds	r6, #8
 1202aec:	f1a8 0810 	sub.w	r8, r8, #16
 1202af0:	f1b8 0f10 	cmp.w	r8, #16
 1202af4:	f340 81b0 	ble.w	1202e58 <_svfprintf_r+0x1754>
 1202af8:	4620      	mov	r0, r4
 1202afa:	9c0c      	ldr	r4, [sp, #48]	; 0x30
 1202afc:	e013      	b.n	1202b26 <_svfprintf_r+0x1422>
 1202afe:	3608      	adds	r6, #8
 1202b00:	3301      	adds	r3, #1
 1202b02:	3010      	adds	r0, #16
 1202b04:	2b07      	cmp	r3, #7
 1202b06:	f8c6 9000 	str.w	r9, [r6]
 1202b0a:	6075      	str	r5, [r6, #4]
 1202b0c:	f1a8 0810 	sub.w	r8, r8, #16
 1202b10:	9027      	str	r0, [sp, #156]	; 0x9c
 1202b12:	9326      	str	r3, [sp, #152]	; 0x98
 1202b14:	f300 80fc 	bgt.w	1202d10 <_svfprintf_r+0x160c>
 1202b18:	3608      	adds	r6, #8
 1202b1a:	f1a8 0810 	sub.w	r8, r8, #16
 1202b1e:	f1b8 0f10 	cmp.w	r8, #16
 1202b22:	f340 8294 	ble.w	120304e <_svfprintf_r+0x194a>
 1202b26:	3301      	adds	r3, #1
 1202b28:	3010      	adds	r0, #16
 1202b2a:	2b07      	cmp	r3, #7
 1202b2c:	f8c6 9000 	str.w	r9, [r6]
 1202b30:	6075      	str	r5, [r6, #4]
 1202b32:	9027      	str	r0, [sp, #156]	; 0x9c
 1202b34:	9326      	str	r3, [sp, #152]	; 0x98
 1202b36:	dde2      	ble.n	1202afe <_svfprintf_r+0x13fa>
 1202b38:	4620      	mov	r0, r4
 1202b3a:	4659      	mov	r1, fp
 1202b3c:	aa25      	add	r2, sp, #148	; 0x94
 1202b3e:	f002 fe51 	bl	12057e4 <__ssprint_r>
 1202b42:	2800      	cmp	r0, #0
 1202b44:	f47e afa1 	bne.w	1201a8a <_svfprintf_r+0x386>
 1202b48:	9827      	ldr	r0, [sp, #156]	; 0x9c
 1202b4a:	9b26      	ldr	r3, [sp, #152]	; 0x98
 1202b4c:	ae32      	add	r6, sp, #200	; 0xc8
 1202b4e:	e7d7      	b.n	1202b00 <_svfprintf_r+0x13fc>
 1202b50:	9c09      	ldr	r4, [sp, #36]	; 0x24
 1202b52:	f10a 0a01 	add.w	sl, sl, #1
 1202b56:	f044 0720 	orr.w	r7, r4, #32
 1202b5a:	9709      	str	r7, [sp, #36]	; 0x24
 1202b5c:	f892 8001 	ldrb.w	r8, [r2, #1]
 1202b60:	f7fe be31 	b.w	12017c6 <_svfprintf_r+0xc2>
 1202b64:	980a      	ldr	r0, [sp, #40]	; 0x28
 1202b66:	1c47      	adds	r7, r0, #1
 1202b68:	f000 80cf 	beq.w	1202d0a <_svfprintf_r+0x1606>
 1202b6c:	f1b8 0f67 	cmp.w	r8, #103	; 0x67
 1202b70:	f000 824c 	beq.w	120300c <_svfprintf_r+0x1908>
 1202b74:	f1b8 0f47 	cmp.w	r8, #71	; 0x47
 1202b78:	f000 8248 	beq.w	120300c <_svfprintf_r+0x1908>
 1202b7c:	9809      	ldr	r0, [sp, #36]	; 0x24
 1202b7e:	2c00      	cmp	r4, #0
 1202b80:	f440 7780 	orr.w	r7, r0, #256	; 0x100
 1202b84:	9713      	str	r7, [sp, #76]	; 0x4c
 1202b86:	f2c0 826b 	blt.w	1203060 <_svfprintf_r+0x195c>
 1202b8a:	2100      	movs	r1, #0
 1202b8c:	9112      	str	r1, [sp, #72]	; 0x48
 1202b8e:	f1b8 0f66 	cmp.w	r8, #102	; 0x66
 1202b92:	f000 820b 	beq.w	1202fac <_svfprintf_r+0x18a8>
 1202b96:	f1b8 0f46 	cmp.w	r8, #70	; 0x46
 1202b9a:	f000 8207 	beq.w	1202fac <_svfprintf_r+0x18a8>
 1202b9e:	f1b8 0f65 	cmp.w	r8, #101	; 0x65
 1202ba2:	f000 8262 	beq.w	120306a <_svfprintf_r+0x1966>
 1202ba6:	f1b8 0f45 	cmp.w	r8, #69	; 0x45
 1202baa:	f000 825e 	beq.w	120306a <_svfprintf_r+0x1966>
 1202bae:	f8dd c028 	ldr.w	ip, [sp, #40]	; 0x28
 1202bb2:	2102      	movs	r1, #2
 1202bb4:	e88d 1002 	stmia.w	sp, {r1, ip}
 1202bb8:	a81e      	add	r0, sp, #120	; 0x78
 1202bba:	af1f      	add	r7, sp, #124	; 0x7c
 1202bbc:	a920      	add	r1, sp, #128	; 0x80
 1202bbe:	9002      	str	r0, [sp, #8]
 1202bc0:	9703      	str	r7, [sp, #12]
 1202bc2:	462a      	mov	r2, r5
 1202bc4:	4623      	mov	r3, r4
 1202bc6:	9104      	str	r1, [sp, #16]
 1202bc8:	980c      	ldr	r0, [sp, #48]	; 0x30
 1202bca:	f8cd c01c 	str.w	ip, [sp, #28]
 1202bce:	f000 fc7f 	bl	12034d0 <_dtoa_r>
 1202bd2:	f1b8 0f67 	cmp.w	r8, #103	; 0x67
 1202bd6:	4607      	mov	r7, r0
 1202bd8:	f8dd c01c 	ldr.w	ip, [sp, #28]
 1202bdc:	d002      	beq.n	1202be4 <_svfprintf_r+0x14e0>
 1202bde:	f1b8 0f47 	cmp.w	r8, #71	; 0x47
 1202be2:	d103      	bne.n	1202bec <_svfprintf_r+0x14e8>
 1202be4:	9a09      	ldr	r2, [sp, #36]	; 0x24
 1202be6:	07d0      	lsls	r0, r2, #31
 1202be8:	f140 8243 	bpl.w	1203072 <_svfprintf_r+0x196e>
 1202bec:	eb07 030c 	add.w	r3, r7, ip
 1202bf0:	f1b8 0f46 	cmp.w	r8, #70	; 0x46
 1202bf4:	930b      	str	r3, [sp, #44]	; 0x2c
 1202bf6:	f000 81ee 	beq.w	1202fd6 <_svfprintf_r+0x18d2>
 1202bfa:	4628      	mov	r0, r5
 1202bfc:	4621      	mov	r1, r4
 1202bfe:	2200      	movs	r2, #0
 1202c00:	2300      	movs	r3, #0
 1202c02:	f7fd ffb9 	bl	1200b78 <__aeabi_dcmpeq>
 1202c06:	bb00      	cbnz	r0, 1202c4a <_svfprintf_r+0x1546>
 1202c08:	9a20      	ldr	r2, [sp, #128]	; 0x80
 1202c0a:	9c0b      	ldr	r4, [sp, #44]	; 0x2c
 1202c0c:	4294      	cmp	r4, r2
 1202c0e:	f240 82d8 	bls.w	12031c2 <_svfprintf_r+0x1abe>
 1202c12:	4613      	mov	r3, r2
 1202c14:	2130      	movs	r1, #48	; 0x30
 1202c16:	43d0      	mvns	r0, r2
 1202c18:	f803 1b01 	strb.w	r1, [r3], #1
 1202c1c:	1820      	adds	r0, r4, r0
 1202c1e:	42a3      	cmp	r3, r4
 1202c20:	9320      	str	r3, [sp, #128]	; 0x80
 1202c22:	f000 0001 	and.w	r0, r0, #1
 1202c26:	d00f      	beq.n	1202c48 <_svfprintf_r+0x1544>
 1202c28:	b128      	cbz	r0, 1202c36 <_svfprintf_r+0x1532>
 1202c2a:	7051      	strb	r1, [r2, #1]
 1202c2c:	9a0b      	ldr	r2, [sp, #44]	; 0x2c
 1202c2e:	3301      	adds	r3, #1
 1202c30:	4293      	cmp	r3, r2
 1202c32:	9320      	str	r3, [sp, #128]	; 0x80
 1202c34:	d008      	beq.n	1202c48 <_svfprintf_r+0x1544>
 1202c36:	9c0b      	ldr	r4, [sp, #44]	; 0x2c
 1202c38:	4618      	mov	r0, r3
 1202c3a:	f800 1b01 	strb.w	r1, [r0], #1
 1202c3e:	7059      	strb	r1, [r3, #1]
 1202c40:	1c43      	adds	r3, r0, #1
 1202c42:	42a3      	cmp	r3, r4
 1202c44:	9320      	str	r3, [sp, #128]	; 0x80
 1202c46:	d1f7      	bne.n	1202c38 <_svfprintf_r+0x1534>
 1202c48:	930b      	str	r3, [sp, #44]	; 0x2c
 1202c4a:	990b      	ldr	r1, [sp, #44]	; 0x2c
 1202c4c:	f1b8 0f67 	cmp.w	r8, #103	; 0x67
 1202c50:	ebc7 0301 	rsb	r3, r7, r1
 1202c54:	9311      	str	r3, [sp, #68]	; 0x44
 1202c56:	f000 8166 	beq.w	1202f26 <_svfprintf_r+0x1822>
 1202c5a:	f1b8 0f47 	cmp.w	r8, #71	; 0x47
 1202c5e:	f000 8162 	beq.w	1202f26 <_svfprintf_r+0x1822>
 1202c62:	f1b8 0f66 	cmp.w	r8, #102	; 0x66
 1202c66:	f040 82b8 	bne.w	12031da <_svfprintf_r+0x1ad6>
 1202c6a:	9a1e      	ldr	r2, [sp, #120]	; 0x78
 1202c6c:	9c0a      	ldr	r4, [sp, #40]	; 0x28
 1202c6e:	2a00      	cmp	r2, #0
 1202c70:	f340 8288 	ble.w	1203184 <_svfprintf_r+0x1a80>
 1202c74:	2c00      	cmp	r4, #0
 1202c76:	f040 8253 	bne.w	1203120 <_svfprintf_r+0x1a1c>
 1202c7a:	9909      	ldr	r1, [sp, #36]	; 0x24
 1202c7c:	07c8      	lsls	r0, r1, #31
 1202c7e:	f100 824f 	bmi.w	1203120 <_svfprintf_r+0x1a1c>
 1202c82:	ea22 73e2 	bic.w	r3, r2, r2, asr #31
 1202c86:	930b      	str	r3, [sp, #44]	; 0x2c
 1202c88:	920e      	str	r2, [sp, #56]	; 0x38
 1202c8a:	9215      	str	r2, [sp, #84]	; 0x54
 1202c8c:	9912      	ldr	r1, [sp, #72]	; 0x48
 1202c8e:	2900      	cmp	r1, #0
 1202c90:	f000 8143 	beq.w	1202f1a <_svfprintf_r+0x1816>
 1202c94:	9813      	ldr	r0, [sp, #76]	; 0x4c
 1202c96:	222d      	movs	r2, #45	; 0x2d
 1202c98:	2100      	movs	r1, #0
 1202c9a:	f88d 2073 	strb.w	r2, [sp, #115]	; 0x73
 1202c9e:	9009      	str	r0, [sp, #36]	; 0x24
 1202ca0:	9112      	str	r1, [sp, #72]	; 0x48
 1202ca2:	f7fe be61 	b.w	1201968 <_svfprintf_r+0x264>
 1202ca6:	980c      	ldr	r0, [sp, #48]	; 0x30
 1202ca8:	4659      	mov	r1, fp
 1202caa:	aa25      	add	r2, sp, #148	; 0x94
 1202cac:	f002 fd9a 	bl	12057e4 <__ssprint_r>
 1202cb0:	2800      	cmp	r0, #0
 1202cb2:	f47e aeea 	bne.w	1201a8a <_svfprintf_r+0x386>
 1202cb6:	9c27      	ldr	r4, [sp, #156]	; 0x9c
 1202cb8:	ae32      	add	r6, sp, #200	; 0xc8
 1202cba:	f7ff ba80 	b.w	12021be <_svfprintf_r+0xaba>
 1202cbe:	9b0e      	ldr	r3, [sp, #56]	; 0x38
 1202cc0:	9510      	str	r5, [sp, #64]	; 0x40
 1202cc2:	ea23 72e3 	bic.w	r2, r3, r3, asr #31
 1202cc6:	920b      	str	r2, [sp, #44]	; 0x2c
 1202cc8:	f89d 3073 	ldrb.w	r3, [sp, #115]	; 0x73
 1202ccc:	9415      	str	r4, [sp, #84]	; 0x54
 1202cce:	f7fe be4a 	b.w	1201966 <_svfprintf_r+0x262>
 1202cd2:	980c      	ldr	r0, [sp, #48]	; 0x30
 1202cd4:	2140      	movs	r1, #64	; 0x40
 1202cd6:	f001 fcfd 	bl	12046d4 <_malloc_r>
 1202cda:	f8cb 0000 	str.w	r0, [fp]
 1202cde:	f8cb 0010 	str.w	r0, [fp, #16]
 1202ce2:	2800      	cmp	r0, #0
 1202ce4:	f000 8272 	beq.w	12031cc <_svfprintf_r+0x1ac8>
 1202ce8:	2640      	movs	r6, #64	; 0x40
 1202cea:	f8cb 6014 	str.w	r6, [fp, #20]
 1202cee:	f7fe bd26 	b.w	120173e <_svfprintf_r+0x3a>
 1202cf2:	980c      	ldr	r0, [sp, #48]	; 0x30
 1202cf4:	4659      	mov	r1, fp
 1202cf6:	aa25      	add	r2, sp, #148	; 0x94
 1202cf8:	f002 fd74 	bl	12057e4 <__ssprint_r>
 1202cfc:	2800      	cmp	r0, #0
 1202cfe:	f47e aec4 	bne.w	1201a8a <_svfprintf_r+0x386>
 1202d02:	9a1e      	ldr	r2, [sp, #120]	; 0x78
 1202d04:	9c27      	ldr	r4, [sp, #156]	; 0x9c
 1202d06:	ae32      	add	r6, sp, #200	; 0xc8
 1202d08:	e6ab      	b.n	1202a62 <_svfprintf_r+0x135e>
 1202d0a:	2206      	movs	r2, #6
 1202d0c:	920a      	str	r2, [sp, #40]	; 0x28
 1202d0e:	e735      	b.n	1202b7c <_svfprintf_r+0x1478>
 1202d10:	4620      	mov	r0, r4
 1202d12:	4659      	mov	r1, fp
 1202d14:	aa25      	add	r2, sp, #148	; 0x94
 1202d16:	f002 fd65 	bl	12057e4 <__ssprint_r>
 1202d1a:	2800      	cmp	r0, #0
 1202d1c:	f47e aeb5 	bne.w	1201a8a <_svfprintf_r+0x386>
 1202d20:	ae32      	add	r6, sp, #200	; 0xc8
 1202d22:	9827      	ldr	r0, [sp, #156]	; 0x9c
 1202d24:	9b26      	ldr	r3, [sp, #152]	; 0x98
 1202d26:	e6f8      	b.n	1202b1a <_svfprintf_r+0x1416>
 1202d28:	012061ac 	teqeq	r0, ip, lsr #3
 1202d2c:	01200218 	teqeq	r0, r8, lsl r2
 1202d30:	9810      	ldr	r0, [sp, #64]	; 0x40
 1202d32:	6805      	ldr	r5, [r0, #0]
 1202d34:	4607      	mov	r7, r0
 1202d36:	f7fe bdb6 	b.w	12018a6 <_svfprintf_r+0x1a2>
 1202d3a:	9a10      	ldr	r2, [sp, #64]	; 0x40
 1202d3c:	9909      	ldr	r1, [sp, #36]	; 0x24
 1202d3e:	6813      	ldr	r3, [r2, #0]
 1202d40:	9f0f      	ldr	r7, [sp, #60]	; 0x3c
 1202d42:	1d10      	adds	r0, r2, #4
 1202d44:	f011 0f40 	tst.w	r1, #64	; 0x40
 1202d48:	9010      	str	r0, [sp, #64]	; 0x40
 1202d4a:	bf14      	ite	ne
 1202d4c:	801f      	strhne	r7, [r3, #0]
 1202d4e:	601f      	streq	r7, [r3, #0]
 1202d50:	f7fe bd02 	b.w	1201758 <_svfprintf_r+0x54>
 1202d54:	4614      	mov	r4, r2
 1202d56:	f7ff bb0b 	b.w	1202370 <_svfprintf_r+0xc6c>
 1202d5a:	f7fe fc63 	bl	1201624 <strlen>
 1202d5e:	9412      	str	r4, [sp, #72]	; 0x48
 1202d60:	9c12      	ldr	r4, [sp, #72]	; 0x48
 1202d62:	ea20 72e0 	bic.w	r2, r0, r0, asr #31
 1202d66:	900e      	str	r0, [sp, #56]	; 0x38
 1202d68:	920b      	str	r2, [sp, #44]	; 0x2c
 1202d6a:	f89d 3073 	ldrb.w	r3, [sp, #115]	; 0x73
 1202d6e:	9510      	str	r5, [sp, #64]	; 0x40
 1202d70:	9415      	str	r4, [sp, #84]	; 0x54
 1202d72:	f7fe bdf8 	b.w	1201966 <_svfprintf_r+0x262>
 1202d76:	980c      	ldr	r0, [sp, #48]	; 0x30
 1202d78:	4659      	mov	r1, fp
 1202d7a:	aa25      	add	r2, sp, #148	; 0x94
 1202d7c:	f002 fd32 	bl	12057e4 <__ssprint_r>
 1202d80:	2800      	cmp	r0, #0
 1202d82:	f47e ae82 	bne.w	1201a8a <_svfprintf_r+0x386>
 1202d86:	9c27      	ldr	r4, [sp, #156]	; 0x9c
 1202d88:	9b26      	ldr	r3, [sp, #152]	; 0x98
 1202d8a:	ae32      	add	r6, sp, #200	; 0xc8
 1202d8c:	9911      	ldr	r1, [sp, #68]	; 0x44
 1202d8e:	1c5a      	adds	r2, r3, #1
 1202d90:	1864      	adds	r4, r4, r1
 1202d92:	2a07      	cmp	r2, #7
 1202d94:	6037      	str	r7, [r6, #0]
 1202d96:	6071      	str	r1, [r6, #4]
 1202d98:	9427      	str	r4, [sp, #156]	; 0x9c
 1202d9a:	9226      	str	r2, [sp, #152]	; 0x98
 1202d9c:	f77f a8cd 	ble.w	1201f3a <_svfprintf_r+0x836>
 1202da0:	f7ff b973 	b.w	120208a <_svfprintf_r+0x986>
 1202da4:	980c      	ldr	r0, [sp, #48]	; 0x30
 1202da6:	4659      	mov	r1, fp
 1202da8:	aa25      	add	r2, sp, #148	; 0x94
 1202daa:	9306      	str	r3, [sp, #24]
 1202dac:	f002 fd1a 	bl	12057e4 <__ssprint_r>
 1202db0:	9b06      	ldr	r3, [sp, #24]
 1202db2:	2800      	cmp	r0, #0
 1202db4:	f47e ae69 	bne.w	1201a8a <_svfprintf_r+0x386>
 1202db8:	ae32      	add	r6, sp, #200	; 0xc8
 1202dba:	9c27      	ldr	r4, [sp, #156]	; 0x9c
 1202dbc:	9d26      	ldr	r5, [sp, #152]	; 0x98
 1202dbe:	e441      	b.n	1202644 <_svfprintf_r+0xf40>
 1202dc0:	460c      	mov	r4, r1
 1202dc2:	e61e      	b.n	1202a02 <_svfprintf_r+0x12fe>
 1202dc4:	4ca3      	ldr	r4, [pc, #652]	; (1203054 <_svfprintf_r+0x1950>)
 1202dc6:	9927      	ldr	r1, [sp, #156]	; 0x9c
 1202dc8:	9a26      	ldr	r2, [sp, #152]	; 0x98
 1202dca:	941b      	str	r4, [sp, #108]	; 0x6c
 1202dcc:	f7fe bff9 	b.w	1201dc2 <_svfprintf_r+0x6be>
 1202dd0:	980c      	ldr	r0, [sp, #48]	; 0x30
 1202dd2:	4659      	mov	r1, fp
 1202dd4:	aa25      	add	r2, sp, #148	; 0x94
 1202dd6:	f002 fd05 	bl	12057e4 <__ssprint_r>
 1202dda:	2800      	cmp	r0, #0
 1202ddc:	f47e ae55 	bne.w	1201a8a <_svfprintf_r+0x386>
 1202de0:	ae32      	add	r6, sp, #200	; 0xc8
 1202de2:	9c27      	ldr	r4, [sp, #156]	; 0x9c
 1202de4:	9d26      	ldr	r5, [sp, #152]	; 0x98
 1202de6:	e43e      	b.n	1202666 <_svfprintf_r+0xf62>
 1202de8:	980c      	ldr	r0, [sp, #48]	; 0x30
 1202dea:	4659      	mov	r1, fp
 1202dec:	aa25      	add	r2, sp, #148	; 0x94
 1202dee:	f8cd c01c 	str.w	ip, [sp, #28]
 1202df2:	f002 fcf7 	bl	12057e4 <__ssprint_r>
 1202df6:	f8dd c01c 	ldr.w	ip, [sp, #28]
 1202dfa:	2800      	cmp	r0, #0
 1202dfc:	f47e ae45 	bne.w	1201a8a <_svfprintf_r+0x386>
 1202e00:	ae32      	add	r6, sp, #200	; 0xc8
 1202e02:	9c27      	ldr	r4, [sp, #156]	; 0x9c
 1202e04:	9b26      	ldr	r3, [sp, #152]	; 0x98
 1202e06:	f7ff bba1 	b.w	120254c <_svfprintf_r+0xe48>
 1202e0a:	980c      	ldr	r0, [sp, #48]	; 0x30
 1202e0c:	4659      	mov	r1, fp
 1202e0e:	aa25      	add	r2, sp, #148	; 0x94
 1202e10:	f002 fce8 	bl	12057e4 <__ssprint_r>
 1202e14:	2800      	cmp	r0, #0
 1202e16:	f47e ae38 	bne.w	1201a8a <_svfprintf_r+0x386>
 1202e1a:	9c27      	ldr	r4, [sp, #156]	; 0x9c
 1202e1c:	ae32      	add	r6, sp, #200	; 0xc8
 1202e1e:	f7ff bb76 	b.w	120250e <_svfprintf_r+0xe0a>
 1202e22:	980c      	ldr	r0, [sp, #48]	; 0x30
 1202e24:	4659      	mov	r1, fp
 1202e26:	aa25      	add	r2, sp, #148	; 0x94
 1202e28:	f002 fcdc 	bl	12057e4 <__ssprint_r>
 1202e2c:	2800      	cmp	r0, #0
 1202e2e:	f47e ae2c 	bne.w	1201a8a <_svfprintf_r+0x386>
 1202e32:	ae32      	add	r6, sp, #200	; 0xc8
 1202e34:	9c27      	ldr	r4, [sp, #156]	; 0x9c
 1202e36:	9b26      	ldr	r3, [sp, #152]	; 0x98
 1202e38:	f7ff b9dd 	b.w	12021f6 <_svfprintf_r+0xaf2>
 1202e3c:	980c      	ldr	r0, [sp, #48]	; 0x30
 1202e3e:	4659      	mov	r1, fp
 1202e40:	aa25      	add	r2, sp, #148	; 0x94
 1202e42:	f002 fccf 	bl	12057e4 <__ssprint_r>
 1202e46:	2800      	cmp	r0, #0
 1202e48:	f47e ae1f 	bne.w	1201a8a <_svfprintf_r+0x386>
 1202e4c:	9b1e      	ldr	r3, [sp, #120]	; 0x78
 1202e4e:	9c27      	ldr	r4, [sp, #156]	; 0x9c
 1202e50:	ae32      	add	r6, sp, #200	; 0xc8
 1202e52:	e4c2      	b.n	12027da <_svfprintf_r+0x10d6>
 1202e54:	4980      	ldr	r1, [pc, #512]	; (1203058 <_svfprintf_r+0x1954>)
 1202e56:	910a      	str	r1, [sp, #40]	; 0x28
 1202e58:	3301      	adds	r3, #1
 1202e5a:	990a      	ldr	r1, [sp, #40]	; 0x28
 1202e5c:	4444      	add	r4, r8
 1202e5e:	2b07      	cmp	r3, #7
 1202e60:	e886 0102 	stmia.w	r6, {r1, r8}
 1202e64:	9427      	str	r4, [sp, #156]	; 0x9c
 1202e66:	9326      	str	r3, [sp, #152]	; 0x98
 1202e68:	dc85      	bgt.n	1202d76 <_svfprintf_r+0x1672>
 1202e6a:	3608      	adds	r6, #8
 1202e6c:	e78e      	b.n	1202d8c <_svfprintf_r+0x1688>
 1202e6e:	980c      	ldr	r0, [sp, #48]	; 0x30
 1202e70:	4659      	mov	r1, fp
 1202e72:	aa25      	add	r2, sp, #148	; 0x94
 1202e74:	f002 fcb6 	bl	12057e4 <__ssprint_r>
 1202e78:	2800      	cmp	r0, #0
 1202e7a:	f47e ae06 	bne.w	1201a8a <_svfprintf_r+0x386>
 1202e7e:	ae32      	add	r6, sp, #200	; 0xc8
 1202e80:	9c27      	ldr	r4, [sp, #156]	; 0x9c
 1202e82:	9b26      	ldr	r3, [sp, #152]	; 0x98
 1202e84:	f7ff b9c9 	b.w	120221a <_svfprintf_r+0xb16>
 1202e88:	980c      	ldr	r0, [sp, #48]	; 0x30
 1202e8a:	4659      	mov	r1, fp
 1202e8c:	aa25      	add	r2, sp, #148	; 0x94
 1202e8e:	f002 fca9 	bl	12057e4 <__ssprint_r>
 1202e92:	2800      	cmp	r0, #0
 1202e94:	f47e adf9 	bne.w	1201a8a <_svfprintf_r+0x386>
 1202e98:	ae32      	add	r6, sp, #200	; 0xc8
 1202e9a:	9c27      	ldr	r4, [sp, #156]	; 0x9c
 1202e9c:	9b26      	ldr	r3, [sp, #152]	; 0x98
 1202e9e:	f7ff bb68 	b.w	1202572 <_svfprintf_r+0xe6e>
 1202ea2:	980c      	ldr	r0, [sp, #48]	; 0x30
 1202ea4:	4659      	mov	r1, fp
 1202ea6:	aa25      	add	r2, sp, #148	; 0x94
 1202ea8:	f002 fc9c 	bl	12057e4 <__ssprint_r>
 1202eac:	2800      	cmp	r0, #0
 1202eae:	f47e adec 	bne.w	1201a8a <_svfprintf_r+0x386>
 1202eb2:	ae32      	add	r6, sp, #200	; 0xc8
 1202eb4:	9c27      	ldr	r4, [sp, #156]	; 0x9c
 1202eb6:	9b26      	ldr	r3, [sp, #152]	; 0x98
 1202eb8:	e4bf      	b.n	120283a <_svfprintf_r+0x1136>
 1202eba:	980c      	ldr	r0, [sp, #48]	; 0x30
 1202ebc:	4659      	mov	r1, fp
 1202ebe:	aa25      	add	r2, sp, #148	; 0x94
 1202ec0:	f002 fc90 	bl	12057e4 <__ssprint_r>
 1202ec4:	2800      	cmp	r0, #0
 1202ec6:	f47e ade0 	bne.w	1201a8a <_svfprintf_r+0x386>
 1202eca:	9e11      	ldr	r6, [sp, #68]	; 0x44
 1202ecc:	9f1e      	ldr	r7, [sp, #120]	; 0x78
 1202ece:	9c27      	ldr	r4, [sp, #156]	; 0x9c
 1202ed0:	1bf3      	subs	r3, r6, r7
 1202ed2:	ae32      	add	r6, sp, #200	; 0xc8
 1202ed4:	e495      	b.n	1202802 <_svfprintf_r+0x10fe>
 1202ed6:	9f0a      	ldr	r7, [sp, #40]	; 0x28
 1202ed8:	9510      	str	r5, [sp, #64]	; 0x40
 1202eda:	2f06      	cmp	r7, #6
 1202edc:	bf28      	it	cs
 1202ede:	2706      	movcs	r7, #6
 1202ee0:	ea27 71e7 	bic.w	r1, r7, r7, asr #31
 1202ee4:	970e      	str	r7, [sp, #56]	; 0x38
 1202ee6:	910b      	str	r1, [sp, #44]	; 0x2c
 1202ee8:	4f5c      	ldr	r7, [pc, #368]	; (120305c <_svfprintf_r+0x1958>)
 1202eea:	f7fe be69 	b.w	1201bc0 <_svfprintf_r+0x4bc>
 1202eee:	4a59      	ldr	r2, [pc, #356]	; (1203054 <_svfprintf_r+0x1950>)
 1202ef0:	9b26      	ldr	r3, [sp, #152]	; 0x98
 1202ef2:	9209      	str	r2, [sp, #36]	; 0x24
 1202ef4:	f7ff b8f6 	b.w	12020e4 <_svfprintf_r+0x9e0>
 1202ef8:	980c      	ldr	r0, [sp, #48]	; 0x30
 1202efa:	4659      	mov	r1, fp
 1202efc:	aa25      	add	r2, sp, #148	; 0x94
 1202efe:	f002 fc71 	bl	12057e4 <__ssprint_r>
 1202f02:	2800      	cmp	r0, #0
 1202f04:	f47e adc1 	bne.w	1201a8a <_svfprintf_r+0x386>
 1202f08:	ae32      	add	r6, sp, #200	; 0xc8
 1202f0a:	9c27      	ldr	r4, [sp, #156]	; 0x9c
 1202f0c:	9b26      	ldr	r3, [sp, #152]	; 0x98
 1202f0e:	e4a6      	b.n	120285e <_svfprintf_r+0x115a>
 1202f10:	232d      	movs	r3, #45	; 0x2d
 1202f12:	f88d 3073 	strb.w	r3, [sp, #115]	; 0x73
 1202f16:	f7fe be05 	b.w	1201b24 <_svfprintf_r+0x420>
 1202f1a:	9c13      	ldr	r4, [sp, #76]	; 0x4c
 1202f1c:	f89d 3073 	ldrb.w	r3, [sp, #115]	; 0x73
 1202f20:	9409      	str	r4, [sp, #36]	; 0x24
 1202f22:	f7fe bd20 	b.w	1201966 <_svfprintf_r+0x262>
 1202f26:	9a1e      	ldr	r2, [sp, #120]	; 0x78
 1202f28:	1cd1      	adds	r1, r2, #3
 1202f2a:	4610      	mov	r0, r2
 1202f2c:	db02      	blt.n	1202f34 <_svfprintf_r+0x1830>
 1202f2e:	9c0a      	ldr	r4, [sp, #40]	; 0x28
 1202f30:	4294      	cmp	r4, r2
 1202f32:	da28      	bge.n	1202f86 <_svfprintf_r+0x1882>
 1202f34:	f1a8 0802 	sub.w	r8, r8, #2
 1202f38:	1e43      	subs	r3, r0, #1
 1202f3a:	2b00      	cmp	r3, #0
 1202f3c:	931e      	str	r3, [sp, #120]	; 0x78
 1202f3e:	f88d 8084 	strb.w	r8, [sp, #132]	; 0x84
 1202f42:	f2c0 8132 	blt.w	12031aa <_svfprintf_r+0x1aa6>
 1202f46:	222b      	movs	r2, #43	; 0x2b
 1202f48:	f88d 2085 	strb.w	r2, [sp, #133]	; 0x85
 1202f4c:	2b09      	cmp	r3, #9
 1202f4e:	f300 809f 	bgt.w	1203090 <_svfprintf_r+0x198c>
 1202f52:	3330      	adds	r3, #48	; 0x30
 1202f54:	2030      	movs	r0, #48	; 0x30
 1202f56:	f88d 0086 	strb.w	r0, [sp, #134]	; 0x86
 1202f5a:	f88d 3087 	strb.w	r3, [sp, #135]	; 0x87
 1202f5e:	a922      	add	r1, sp, #136	; 0x88
 1202f60:	aa21      	add	r2, sp, #132	; 0x84
 1202f62:	9b11      	ldr	r3, [sp, #68]	; 0x44
 1202f64:	9c11      	ldr	r4, [sp, #68]	; 0x44
 1202f66:	1a88      	subs	r0, r1, r2
 1202f68:	1819      	adds	r1, r3, r0
 1202f6a:	2c01      	cmp	r4, #1
 1202f6c:	901a      	str	r0, [sp, #104]	; 0x68
 1202f6e:	910e      	str	r1, [sp, #56]	; 0x38
 1202f70:	f340 8110 	ble.w	1203194 <_svfprintf_r+0x1a90>
 1202f74:	9c0e      	ldr	r4, [sp, #56]	; 0x38
 1202f76:	2300      	movs	r3, #0
 1202f78:	1c62      	adds	r2, r4, #1
 1202f7a:	ea22 70e2 	bic.w	r0, r2, r2, asr #31
 1202f7e:	920e      	str	r2, [sp, #56]	; 0x38
 1202f80:	900b      	str	r0, [sp, #44]	; 0x2c
 1202f82:	9315      	str	r3, [sp, #84]	; 0x54
 1202f84:	e682      	b.n	1202c8c <_svfprintf_r+0x1588>
 1202f86:	9911      	ldr	r1, [sp, #68]	; 0x44
 1202f88:	428a      	cmp	r2, r1
 1202f8a:	db52      	blt.n	1203032 <_svfprintf_r+0x192e>
 1202f8c:	9909      	ldr	r1, [sp, #36]	; 0x24
 1202f8e:	07cb      	lsls	r3, r1, #31
 1202f90:	f100 80df 	bmi.w	1203152 <_svfprintf_r+0x1a4e>
 1202f94:	ea22 73e2 	bic.w	r3, r2, r2, asr #31
 1202f98:	930b      	str	r3, [sp, #44]	; 0x2c
 1202f9a:	920e      	str	r2, [sp, #56]	; 0x38
 1202f9c:	f04f 0867 	mov.w	r8, #103	; 0x67
 1202fa0:	e673      	b.n	1202c8a <_svfprintf_r+0x1586>
 1202fa2:	4b2d      	ldr	r3, [pc, #180]	; (1203058 <_svfprintf_r+0x1954>)
 1202fa4:	9a26      	ldr	r2, [sp, #152]	; 0x98
 1202fa6:	930a      	str	r3, [sp, #40]	; 0x28
 1202fa8:	f7ff b9d4 	b.w	1202354 <_svfprintf_r+0xc50>
 1202fac:	9f0a      	ldr	r7, [sp, #40]	; 0x28
 1202fae:	2003      	movs	r0, #3
 1202fb0:	9000      	str	r0, [sp, #0]
 1202fb2:	9701      	str	r7, [sp, #4]
 1202fb4:	a91e      	add	r1, sp, #120	; 0x78
 1202fb6:	a81f      	add	r0, sp, #124	; 0x7c
 1202fb8:	af20      	add	r7, sp, #128	; 0x80
 1202fba:	462a      	mov	r2, r5
 1202fbc:	4623      	mov	r3, r4
 1202fbe:	9003      	str	r0, [sp, #12]
 1202fc0:	9704      	str	r7, [sp, #16]
 1202fc2:	9102      	str	r1, [sp, #8]
 1202fc4:	980c      	ldr	r0, [sp, #48]	; 0x30
 1202fc6:	f000 fa83 	bl	12034d0 <_dtoa_r>
 1202fca:	9a0a      	ldr	r2, [sp, #40]	; 0x28
 1202fcc:	f8dd c028 	ldr.w	ip, [sp, #40]	; 0x28
 1202fd0:	1883      	adds	r3, r0, r2
 1202fd2:	4607      	mov	r7, r0
 1202fd4:	930b      	str	r3, [sp, #44]	; 0x2c
 1202fd6:	7839      	ldrb	r1, [r7, #0]
 1202fd8:	2930      	cmp	r1, #48	; 0x30
 1202fda:	f000 80a9 	beq.w	1203130 <_svfprintf_r+0x1a2c>
 1202fde:	981e      	ldr	r0, [sp, #120]	; 0x78
 1202fe0:	9a0b      	ldr	r2, [sp, #44]	; 0x2c
 1202fe2:	1813      	adds	r3, r2, r0
 1202fe4:	930b      	str	r3, [sp, #44]	; 0x2c
 1202fe6:	e608      	b.n	1202bfa <_svfprintf_r+0x14f6>
 1202fe8:	9b0a      	ldr	r3, [sp, #40]	; 0x28
 1202fea:	9a0a      	ldr	r2, [sp, #40]	; 0x28
 1202fec:	ea23 71e3 	bic.w	r1, r3, r3, asr #31
 1202ff0:	9012      	str	r0, [sp, #72]	; 0x48
 1202ff2:	910b      	str	r1, [sp, #44]	; 0x2c
 1202ff4:	f89d 3073 	ldrb.w	r3, [sp, #115]	; 0x73
 1202ff8:	9510      	str	r5, [sp, #64]	; 0x40
 1202ffa:	920e      	str	r2, [sp, #56]	; 0x38
 1202ffc:	9015      	str	r0, [sp, #84]	; 0x54
 1202ffe:	f7fe bcb2 	b.w	1201966 <_svfprintf_r+0x262>
 1203002:	2200      	movs	r2, #0
 1203004:	46a2      	mov	sl, r4
 1203006:	920a      	str	r2, [sp, #40]	; 0x28
 1203008:	f7fe bbdf 	b.w	12017ca <_svfprintf_r+0xc6>
 120300c:	9f0a      	ldr	r7, [sp, #40]	; 0x28
 120300e:	2f00      	cmp	r7, #0
 1203010:	bf08      	it	eq
 1203012:	2701      	moveq	r7, #1
 1203014:	970a      	str	r7, [sp, #40]	; 0x28
 1203016:	e5b1      	b.n	1202b7c <_svfprintf_r+0x1478>
 1203018:	980c      	ldr	r0, [sp, #48]	; 0x30
 120301a:	4659      	mov	r1, fp
 120301c:	aa25      	add	r2, sp, #148	; 0x94
 120301e:	f002 fbe1 	bl	12057e4 <__ssprint_r>
 1203022:	2800      	cmp	r0, #0
 1203024:	f47e ad31 	bne.w	1201a8a <_svfprintf_r+0x386>
 1203028:	9a1e      	ldr	r2, [sp, #120]	; 0x78
 120302a:	9c27      	ldr	r4, [sp, #156]	; 0x9c
 120302c:	9b26      	ldr	r3, [sp, #152]	; 0x98
 120302e:	ae32      	add	r6, sp, #200	; 0xc8
 1203030:	e52c      	b.n	1202a8c <_svfprintf_r+0x1388>
 1203032:	2a00      	cmp	r2, #0
 1203034:	9b11      	ldr	r3, [sp, #68]	; 0x44
 1203036:	bfd4      	ite	le
 1203038:	f1c2 0002 	rsble	r0, r2, #2
 120303c:	2001      	movgt	r0, #1
 120303e:	18c0      	adds	r0, r0, r3
 1203040:	ea20 74e0 	bic.w	r4, r0, r0, asr #31
 1203044:	900e      	str	r0, [sp, #56]	; 0x38
 1203046:	940b      	str	r4, [sp, #44]	; 0x2c
 1203048:	f04f 0867 	mov.w	r8, #103	; 0x67
 120304c:	e61d      	b.n	1202c8a <_svfprintf_r+0x1586>
 120304e:	4604      	mov	r4, r0
 1203050:	e702      	b.n	1202e58 <_svfprintf_r+0x1754>
 1203052:	bf00      	nop
 1203054:	01200228 	teqeq	r0, r8, lsr #4
 1203058:	01200218 	teqeq	r0, r8, lsl r2
 120305c:	012061a4 	teqeq	r0, r4, lsr #3
 1203060:	222d      	movs	r2, #45	; 0x2d
 1203062:	f104 4400 	add.w	r4, r4, #2147483648	; 0x80000000
 1203066:	9212      	str	r2, [sp, #72]	; 0x48
 1203068:	e591      	b.n	1202b8e <_svfprintf_r+0x148a>
 120306a:	9b0a      	ldr	r3, [sp, #40]	; 0x28
 120306c:	f103 0c01 	add.w	ip, r3, #1
 1203070:	e59f      	b.n	1202bb2 <_svfprintf_r+0x14ae>
 1203072:	9c20      	ldr	r4, [sp, #128]	; 0x80
 1203074:	940b      	str	r4, [sp, #44]	; 0x2c
 1203076:	e5e8      	b.n	1202c4a <_svfprintf_r+0x1546>
 1203078:	980c      	ldr	r0, [sp, #48]	; 0x30
 120307a:	4659      	mov	r1, fp
 120307c:	aa25      	add	r2, sp, #148	; 0x94
 120307e:	f002 fbb1 	bl	12057e4 <__ssprint_r>
 1203082:	2800      	cmp	r0, #0
 1203084:	f47e ad01 	bne.w	1201a8a <_svfprintf_r+0x386>
 1203088:	ae32      	add	r6, sp, #200	; 0xc8
 120308a:	9c27      	ldr	r4, [sp, #156]	; 0x9c
 120308c:	9b26      	ldr	r3, [sp, #152]	; 0x98
 120308e:	e51a      	b.n	1202ac6 <_svfprintf_r+0x13c2>
 1203090:	f246 6567 	movw	r5, #26215	; 0x6667
 1203094:	f10d 0092 	add.w	r0, sp, #146	; 0x92
 1203098:	f2c6 6566 	movt	r5, #26214	; 0x6666
 120309c:	fb85 2403 	smull	r2, r4, r5, r3
 12030a0:	17da      	asrs	r2, r3, #31
 12030a2:	ebc2 01a4 	rsb	r1, r2, r4, asr #2
 12030a6:	eb01 0481 	add.w	r4, r1, r1, lsl #2
 12030aa:	eba3 0344 	sub.w	r3, r3, r4, lsl #1
 12030ae:	4602      	mov	r2, r0
 12030b0:	f103 0030 	add.w	r0, r3, #48	; 0x30
 12030b4:	7010      	strb	r0, [r2, #0]
 12030b6:	1e50      	subs	r0, r2, #1
 12030b8:	2909      	cmp	r1, #9
 12030ba:	460b      	mov	r3, r1
 12030bc:	dcee      	bgt.n	120309c <_svfprintf_r+0x1998>
 12030be:	3330      	adds	r3, #48	; 0x30
 12030c0:	f10d 0593 	add.w	r5, sp, #147	; 0x93
 12030c4:	b2d9      	uxtb	r1, r3
 12030c6:	4285      	cmp	r5, r0
 12030c8:	f802 1c01 	strb.w	r1, [r2, #-1]
 12030cc:	d97b      	bls.n	12031c6 <_svfprintf_r+0x1ac2>
 12030ce:	1aac      	subs	r4, r5, r2
 12030d0:	07e4      	lsls	r4, r4, #31
 12030d2:	f10d 0085 	add.w	r0, sp, #133	; 0x85
 12030d6:	4613      	mov	r3, r2
 12030d8:	d50d      	bpl.n	12030f6 <_svfprintf_r+0x19f2>
 12030da:	f88d 1086 	strb.w	r1, [sp, #134]	; 0x86
 12030de:	4613      	mov	r3, r2
 12030e0:	f10d 0086 	add.w	r0, sp, #134	; 0x86
 12030e4:	f813 1b01 	ldrb.w	r1, [r3], #1
 12030e8:	e005      	b.n	12030f6 <_svfprintf_r+0x19f2>
 12030ea:	f813 4b01 	ldrb.w	r4, [r3], #1
 12030ee:	1c48      	adds	r0, r1, #1
 12030f0:	704c      	strb	r4, [r1, #1]
 12030f2:	f813 1b01 	ldrb.w	r1, [r3], #1
 12030f6:	7041      	strb	r1, [r0, #1]
 12030f8:	1c41      	adds	r1, r0, #1
 12030fa:	42ab      	cmp	r3, r5
 12030fc:	d1f5      	bne.n	12030ea <_svfprintf_r+0x19e6>
 12030fe:	ac42      	add	r4, sp, #264	; 0x108
 1203100:	ebc2 0144 	rsb	r1, r2, r4, lsl #1
 1203104:	39f6      	subs	r1, #246	; 0xf6
 1203106:	e72b      	b.n	1202f60 <_svfprintf_r+0x185c>
 1203108:	980c      	ldr	r0, [sp, #48]	; 0x30
 120310a:	4659      	mov	r1, fp
 120310c:	aa25      	add	r2, sp, #148	; 0x94
 120310e:	f002 fb69 	bl	12057e4 <__ssprint_r>
 1203112:	2800      	cmp	r0, #0
 1203114:	f47e acb9 	bne.w	1201a8a <_svfprintf_r+0x386>
 1203118:	ae32      	add	r6, sp, #200	; 0xc8
 120311a:	9c27      	ldr	r4, [sp, #156]	; 0x9c
 120311c:	9b26      	ldr	r3, [sp, #152]	; 0x98
 120311e:	e4e5      	b.n	1202aec <_svfprintf_r+0x13e8>
 1203120:	9c0a      	ldr	r4, [sp, #40]	; 0x28
 1203122:	1c60      	adds	r0, r4, #1
 1203124:	1811      	adds	r1, r2, r0
 1203126:	ea21 73e1 	bic.w	r3, r1, r1, asr #31
 120312a:	910e      	str	r1, [sp, #56]	; 0x38
 120312c:	930b      	str	r3, [sp, #44]	; 0x2c
 120312e:	e5ac      	b.n	1202c8a <_svfprintf_r+0x1586>
 1203130:	4628      	mov	r0, r5
 1203132:	4621      	mov	r1, r4
 1203134:	2200      	movs	r2, #0
 1203136:	2300      	movs	r3, #0
 1203138:	f8cd c01c 	str.w	ip, [sp, #28]
 120313c:	f7fd fd1c 	bl	1200b78 <__aeabi_dcmpeq>
 1203140:	f8dd c01c 	ldr.w	ip, [sp, #28]
 1203144:	2800      	cmp	r0, #0
 1203146:	f47f af4a 	bne.w	1202fde <_svfprintf_r+0x18da>
 120314a:	f1cc 0001 	rsb	r0, ip, #1
 120314e:	901e      	str	r0, [sp, #120]	; 0x78
 1203150:	e746      	b.n	1202fe0 <_svfprintf_r+0x18dc>
 1203152:	1c50      	adds	r0, r2, #1
 1203154:	ea20 74e0 	bic.w	r4, r0, r0, asr #31
 1203158:	900e      	str	r0, [sp, #56]	; 0x38
 120315a:	940b      	str	r4, [sp, #44]	; 0x2c
 120315c:	f04f 0867 	mov.w	r8, #103	; 0x67
 1203160:	e593      	b.n	1202c8a <_svfprintf_r+0x1586>
 1203162:	9f10      	ldr	r7, [sp, #64]	; 0x40
 1203164:	9b10      	ldr	r3, [sp, #64]	; 0x40
 1203166:	683a      	ldr	r2, [r7, #0]
 1203168:	1d1f      	adds	r7, r3, #4
 120316a:	2a00      	cmp	r2, #0
 120316c:	f89a 8001 	ldrb.w	r8, [sl, #1]
 1203170:	920a      	str	r2, [sp, #40]	; 0x28
 1203172:	9710      	str	r7, [sp, #64]	; 0x40
 1203174:	46a2      	mov	sl, r4
 1203176:	f6be ab26 	bge.w	12017c6 <_svfprintf_r+0xc2>
 120317a:	f04f 34ff 	mov.w	r4, #4294967295
 120317e:	940a      	str	r4, [sp, #40]	; 0x28
 1203180:	f7fe bb21 	b.w	12017c6 <_svfprintf_r+0xc2>
 1203184:	b9b4      	cbnz	r4, 12031b4 <_svfprintf_r+0x1ab0>
 1203186:	9809      	ldr	r0, [sp, #36]	; 0x24
 1203188:	07c1      	lsls	r1, r0, #31
 120318a:	d413      	bmi.n	12031b4 <_svfprintf_r+0x1ab0>
 120318c:	2101      	movs	r1, #1
 120318e:	910b      	str	r1, [sp, #44]	; 0x2c
 1203190:	910e      	str	r1, [sp, #56]	; 0x38
 1203192:	e57a      	b.n	1202c8a <_svfprintf_r+0x1586>
 1203194:	9a09      	ldr	r2, [sp, #36]	; 0x24
 1203196:	f012 0001 	ands.w	r0, r2, #1
 120319a:	f47f aeeb 	bne.w	1202f74 <_svfprintf_r+0x1870>
 120319e:	9b0e      	ldr	r3, [sp, #56]	; 0x38
 12031a0:	9015      	str	r0, [sp, #84]	; 0x54
 12031a2:	ea23 71e3 	bic.w	r1, r3, r3, asr #31
 12031a6:	910b      	str	r1, [sp, #44]	; 0x2c
 12031a8:	e570      	b.n	1202c8c <_svfprintf_r+0x1588>
 12031aa:	212d      	movs	r1, #45	; 0x2d
 12031ac:	425b      	negs	r3, r3
 12031ae:	f88d 1085 	strb.w	r1, [sp, #133]	; 0x85
 12031b2:	e6cb      	b.n	1202f4c <_svfprintf_r+0x1848>
 12031b4:	9b0a      	ldr	r3, [sp, #40]	; 0x28
 12031b6:	1c9c      	adds	r4, r3, #2
 12031b8:	ea24 70e4 	bic.w	r0, r4, r4, asr #31
 12031bc:	940e      	str	r4, [sp, #56]	; 0x38
 12031be:	900b      	str	r0, [sp, #44]	; 0x2c
 12031c0:	e563      	b.n	1202c8a <_svfprintf_r+0x1586>
 12031c2:	920b      	str	r2, [sp, #44]	; 0x2c
 12031c4:	e541      	b.n	1202c4a <_svfprintf_r+0x1546>
 12031c6:	f10d 0186 	add.w	r1, sp, #134	; 0x86
 12031ca:	e6c9      	b.n	1202f60 <_svfprintf_r+0x185c>
 12031cc:	9c0c      	ldr	r4, [sp, #48]	; 0x30
 12031ce:	200c      	movs	r0, #12
 12031d0:	6020      	str	r0, [r4, #0]
 12031d2:	f04f 30ff 	mov.w	r0, #4294967295
 12031d6:	f7fe bc63 	b.w	1201aa0 <_svfprintf_r+0x39c>
 12031da:	981e      	ldr	r0, [sp, #120]	; 0x78
 12031dc:	e6ac      	b.n	1202f38 <_svfprintf_r+0x1834>
 12031de:	bf00      	nop

012031e0 <quorem>:
 12031e0:	e92d 4ff0 	stmdb	sp!, {r4, r5, r6, r7, r8, r9, sl, fp, lr}
 12031e4:	6903      	ldr	r3, [r0, #16]
 12031e6:	690c      	ldr	r4, [r1, #16]
 12031e8:	b083      	sub	sp, #12
 12031ea:	429c      	cmp	r4, r3
 12031ec:	4606      	mov	r6, r0
 12031ee:	f300 816b 	bgt.w	12034c8 <quorem+0x2e8>
 12031f2:	1ce0      	adds	r0, r4, #3
 12031f4:	0082      	lsls	r2, r0, #2
 12031f6:	188f      	adds	r7, r1, r2
 12031f8:	18b5      	adds	r5, r6, r2
 12031fa:	687b      	ldr	r3, [r7, #4]
 12031fc:	6868      	ldr	r0, [r5, #4]
 12031fe:	1c5a      	adds	r2, r3, #1
 1203200:	fbb0 f5f2 	udiv	r5, r0, r2
 1203204:	f101 0314 	add.w	r3, r1, #20
 1203208:	9301      	str	r3, [sp, #4]
 120320a:	3c01      	subs	r4, #1
 120320c:	3704      	adds	r7, #4
 120320e:	f106 0814 	add.w	r8, r6, #20
 1203212:	2d00      	cmp	r5, #0
 1203214:	f000 80bf 	beq.w	1203396 <quorem+0x1b6>
 1203218:	694b      	ldr	r3, [r1, #20]
 120321a:	f8d8 2000 	ldr.w	r2, [r8]
 120321e:	b298      	uxth	r0, r3
 1203220:	ea4f 4c13 	mov.w	ip, r3, lsr #16
 1203224:	fb05 f000 	mul.w	r0, r5, r0
 1203228:	fb05 f30c 	mul.w	r3, r5, ip
 120322c:	eb03 4c10 	add.w	ip, r3, r0, lsr #16
 1203230:	fa1f fe8c 	uxth.w	lr, ip
 1203234:	b293      	uxth	r3, r2
 1203236:	b280      	uxth	r0, r0
 1203238:	1a1b      	subs	r3, r3, r0
 120323a:	ebce 4212 	rsb	r2, lr, r2, lsr #16
 120323e:	9801      	ldr	r0, [sp, #4]
 1203240:	eb02 4e23 	add.w	lr, r2, r3, asr #16
 1203244:	fa1f f983 	uxth.w	r9, r3
 1203248:	f101 0218 	add.w	r2, r1, #24
 120324c:	ea49 490e 	orr.w	r9, r9, lr, lsl #16
 1203250:	1a38      	subs	r0, r7, r0
 1203252:	f106 0318 	add.w	r3, r6, #24
 1203256:	4297      	cmp	r7, r2
 1203258:	f843 9c04 	str.w	r9, [r3, #-4]
 120325c:	f3c0 0080 	ubfx	r0, r0, #2, #1
 1203260:	ea4f 4c1c 	mov.w	ip, ip, lsr #16
 1203264:	ea4f 4e2e 	mov.w	lr, lr, asr #16
 1203268:	d372      	bcc.n	1203350 <quorem+0x170>
 120326a:	b328      	cbz	r0, 12032b8 <quorem+0xd8>
 120326c:	6810      	ldr	r0, [r2, #0]
 120326e:	681b      	ldr	r3, [r3, #0]
 1203270:	b282      	uxth	r2, r0
 1203272:	0c00      	lsrs	r0, r0, #16
 1203274:	fb05 c202 	mla	r2, r5, r2, ip
 1203278:	fb05 f000 	mul.w	r0, r5, r0
 120327c:	fa1f fc83 	uxth.w	ip, r3
 1203280:	eb00 4012 	add.w	r0, r0, r2, lsr #16
 1203284:	44f4      	add	ip, lr
 1203286:	b292      	uxth	r2, r2
 1203288:	fa1f fe80 	uxth.w	lr, r0
 120328c:	ebc2 0c0c 	rsb	ip, r2, ip
 1203290:	ebce 4313 	rsb	r3, lr, r3, lsr #16
 1203294:	eb03 4e2c 	add.w	lr, r3, ip, asr #16
 1203298:	fa1f f28c 	uxth.w	r2, ip
 120329c:	ea42 4c0e 	orr.w	ip, r2, lr, lsl #16
 12032a0:	f101 021c 	add.w	r2, r1, #28
 12032a4:	f106 031c 	add.w	r3, r6, #28
 12032a8:	4297      	cmp	r7, r2
 12032aa:	f843 cc04 	str.w	ip, [r3, #-4]
 12032ae:	ea4f 4e2e 	mov.w	lr, lr, asr #16
 12032b2:	ea4f 4c10 	mov.w	ip, r0, lsr #16
 12032b6:	d34b      	bcc.n	1203350 <quorem+0x170>
 12032b8:	4610      	mov	r0, r2
 12032ba:	f850 bb04 	ldr.w	fp, [r0], #4
 12032be:	f8d3 9000 	ldr.w	r9, [r3]
 12032c2:	fa1f fa8b 	uxth.w	sl, fp
 12032c6:	ea4f 4b1b 	mov.w	fp, fp, lsr #16
 12032ca:	fb05 cc0a 	mla	ip, r5, sl, ip
 12032ce:	fb05 fb0b 	mul.w	fp, r5, fp
 12032d2:	fa1f fa89 	uxth.w	sl, r9
 12032d6:	eb0b 4b1c 	add.w	fp, fp, ip, lsr #16
 12032da:	44d6      	add	lr, sl
 12032dc:	fa1f fc8c 	uxth.w	ip, ip
 12032e0:	fa1f fa8b 	uxth.w	sl, fp
 12032e4:	ebcc 0e0e 	rsb	lr, ip, lr
 12032e8:	ebca 4919 	rsb	r9, sl, r9, lsr #16
 12032ec:	eb09 4a2e 	add.w	sl, r9, lr, asr #16
 12032f0:	fa1f fc8e 	uxth.w	ip, lr
 12032f4:	4699      	mov	r9, r3
 12032f6:	ea4c 4e0a 	orr.w	lr, ip, sl, lsl #16
 12032fa:	f849 eb04 	str.w	lr, [r9], #4
 12032fe:	f8d2 c004 	ldr.w	ip, [r2, #4]
 1203302:	685a      	ldr	r2, [r3, #4]
 1203304:	fa1f f38c 	uxth.w	r3, ip
 1203308:	fb05 fe03 	mul.w	lr, r5, r3
 120330c:	ea4f 4c1c 	mov.w	ip, ip, lsr #16
 1203310:	fb05 f30c 	mul.w	r3, r5, ip
 1203314:	eb0e 4b1b 	add.w	fp, lr, fp, lsr #16
 1203318:	eb03 4c1b 	add.w	ip, r3, fp, lsr #16
 120331c:	b293      	uxth	r3, r2
 120331e:	fa1f fe8c 	uxth.w	lr, ip
 1203322:	eb03 432a 	add.w	r3, r3, sl, asr #16
 1203326:	fa1f fb8b 	uxth.w	fp, fp
 120332a:	ebcb 0303 	rsb	r3, fp, r3
 120332e:	ebce 4212 	rsb	r2, lr, r2, lsr #16
 1203332:	eb02 4e23 	add.w	lr, r2, r3, asr #16
 1203336:	b29a      	uxth	r2, r3
 1203338:	464b      	mov	r3, r9
 120333a:	ea42 490e 	orr.w	r9, r2, lr, lsl #16
 120333e:	1d02      	adds	r2, r0, #4
 1203340:	4297      	cmp	r7, r2
 1203342:	f843 9b04 	str.w	r9, [r3], #4
 1203346:	ea4f 4c1c 	mov.w	ip, ip, lsr #16
 120334a:	ea4f 4e2e 	mov.w	lr, lr, asr #16
 120334e:	d2b3      	bcs.n	12032b8 <quorem+0xd8>
 1203350:	1d20      	adds	r0, r4, #4
 1203352:	eb06 0380 	add.w	r3, r6, r0, lsl #2
 1203356:	685a      	ldr	r2, [r3, #4]
 1203358:	b9ea      	cbnz	r2, 1203396 <quorem+0x1b6>
 120335a:	1d18      	adds	r0, r3, #4
 120335c:	4598      	cmp	r8, r3
 120335e:	d219      	bcs.n	1203394 <quorem+0x1b4>
 1203360:	f850 2c04 	ldr.w	r2, [r0, #-4]
 1203364:	b9b2      	cbnz	r2, 1203394 <quorem+0x1b4>
 1203366:	3b04      	subs	r3, #4
 1203368:	ebc8 0003 	rsb	r0, r8, r3
 120336c:	1cc2      	adds	r2, r0, #3
 120336e:	0750      	lsls	r0, r2, #29
 1203370:	d50d      	bpl.n	120338e <quorem+0x1ae>
 1203372:	3c01      	subs	r4, #1
 1203374:	4598      	cmp	r8, r3
 1203376:	d20d      	bcs.n	1203394 <quorem+0x1b4>
 1203378:	681a      	ldr	r2, [r3, #0]
 120337a:	3b04      	subs	r3, #4
 120337c:	b13a      	cbz	r2, 120338e <quorem+0x1ae>
 120337e:	e009      	b.n	1203394 <quorem+0x1b4>
 1203380:	6818      	ldr	r0, [r3, #0]
 1203382:	3b04      	subs	r3, #4
 1203384:	b930      	cbnz	r0, 1203394 <quorem+0x1b4>
 1203386:	681a      	ldr	r2, [r3, #0]
 1203388:	3c01      	subs	r4, #1
 120338a:	3b04      	subs	r3, #4
 120338c:	b912      	cbnz	r2, 1203394 <quorem+0x1b4>
 120338e:	3c01      	subs	r4, #1
 1203390:	4598      	cmp	r8, r3
 1203392:	d3f5      	bcc.n	1203380 <quorem+0x1a0>
 1203394:	6134      	str	r4, [r6, #16]
 1203396:	4630      	mov	r0, r6
 1203398:	f002 f844 	bl	1205424 <__mcmp>
 120339c:	2800      	cmp	r0, #0
 120339e:	f2c0 8082 	blt.w	12034a6 <quorem+0x2c6>
 12033a2:	9a01      	ldr	r2, [sp, #4]
 12033a4:	f8d8 1000 	ldr.w	r1, [r8]
 12033a8:	f852 0b04 	ldr.w	r0, [r2], #4
 12033ac:	fa1f fc81 	uxth.w	ip, r1
 12033b0:	b283      	uxth	r3, r0
 12033b2:	0c00      	lsrs	r0, r0, #16
 12033b4:	ebc3 030c 	rsb	r3, r3, ip
 12033b8:	ebc0 4111 	rsb	r1, r0, r1, lsr #16
 12033bc:	eb01 4023 	add.w	r0, r1, r3, asr #16
 12033c0:	fa1f fe83 	uxth.w	lr, r3
 12033c4:	9b01      	ldr	r3, [sp, #4]
 12033c6:	ea4e 4c00 	orr.w	ip, lr, r0, lsl #16
 12033ca:	1af9      	subs	r1, r7, r3
 12033cc:	3501      	adds	r5, #1
 12033ce:	4643      	mov	r3, r8
 12033d0:	1400      	asrs	r0, r0, #16
 12033d2:	4297      	cmp	r7, r2
 12033d4:	f843 cb04 	str.w	ip, [r3], #4
 12033d8:	f3c1 0180 	ubfx	r1, r1, #2, #1
 12033dc:	d34b      	bcc.n	1203476 <quorem+0x296>
 12033de:	b1b9      	cbz	r1, 1203410 <quorem+0x230>
 12033e0:	f852 eb04 	ldr.w	lr, [r2], #4
 12033e4:	6819      	ldr	r1, [r3, #0]
 12033e6:	fa1f f98e 	uxth.w	r9, lr
 12033ea:	fa1f fa81 	uxth.w	sl, r1
 12033ee:	ebc9 090a 	rsb	r9, r9, sl
 12033f2:	ea4f 4c1e 	mov.w	ip, lr, lsr #16
 12033f6:	4448      	add	r0, r9
 12033f8:	ebcc 4111 	rsb	r1, ip, r1, lsr #16
 12033fc:	eb01 4120 	add.w	r1, r1, r0, asr #16
 1203400:	b280      	uxth	r0, r0
 1203402:	ea40 4001 	orr.w	r0, r0, r1, lsl #16
 1203406:	f843 0b04 	str.w	r0, [r3], #4
 120340a:	1408      	asrs	r0, r1, #16
 120340c:	4297      	cmp	r7, r2
 120340e:	d332      	bcc.n	1203476 <quorem+0x296>
 1203410:	4682      	mov	sl, r0
 1203412:	4611      	mov	r1, r2
 1203414:	f851 0b04 	ldr.w	r0, [r1], #4
 1203418:	f8d3 e000 	ldr.w	lr, [r3]
 120341c:	fa1f f980 	uxth.w	r9, r0
 1203420:	fa1f fb8e 	uxth.w	fp, lr
 1203424:	ea4f 4c10 	mov.w	ip, r0, lsr #16
 1203428:	ebc9 0b0b 	rsb	fp, r9, fp
 120342c:	eb0b 000a 	add.w	r0, fp, sl
 1203430:	ebcc 4a1e 	rsb	sl, ip, lr, lsr #16
 1203434:	eb0a 4920 	add.w	r9, sl, r0, asr #16
 1203438:	b280      	uxth	r0, r0
 120343a:	469e      	mov	lr, r3
 120343c:	ea40 4009 	orr.w	r0, r0, r9, lsl #16
 1203440:	f84e 0b04 	str.w	r0, [lr], #4
 1203444:	6850      	ldr	r0, [r2, #4]
 1203446:	685a      	ldr	r2, [r3, #4]
 1203448:	b283      	uxth	r3, r0
 120344a:	fa1f fc82 	uxth.w	ip, r2
 120344e:	0c00      	lsrs	r0, r0, #16
 1203450:	ebc3 030c 	rsb	r3, r3, ip
 1203454:	eb03 4329 	add.w	r3, r3, r9, asr #16
 1203458:	ebc0 4212 	rsb	r2, r0, r2, lsr #16
 120345c:	eb02 4023 	add.w	r0, r2, r3, asr #16
 1203460:	b29a      	uxth	r2, r3
 1203462:	ea42 4a00 	orr.w	sl, r2, r0, lsl #16
 1203466:	1d0a      	adds	r2, r1, #4
 1203468:	4673      	mov	r3, lr
 120346a:	4297      	cmp	r7, r2
 120346c:	f843 ab04 	str.w	sl, [r3], #4
 1203470:	ea4f 4a20 	mov.w	sl, r0, asr #16
 1203474:	d2cd      	bcs.n	1203412 <quorem+0x232>
 1203476:	1d21      	adds	r1, r4, #4
 1203478:	eb06 0381 	add.w	r3, r6, r1, lsl #2
 120347c:	6858      	ldr	r0, [r3, #4]
 120347e:	b990      	cbnz	r0, 12034a6 <quorem+0x2c6>
 1203480:	1d1a      	adds	r2, r3, #4
 1203482:	4598      	cmp	r8, r3
 1203484:	d20e      	bcs.n	12034a4 <quorem+0x2c4>
 1203486:	f852 1c04 	ldr.w	r1, [r2, #-4]
 120348a:	b959      	cbnz	r1, 12034a4 <quorem+0x2c4>
 120348c:	3b04      	subs	r3, #4
 120348e:	ebc8 0003 	rsb	r0, r8, r3
 1203492:	1cc2      	adds	r2, r0, #3
 1203494:	0752      	lsls	r2, r2, #29
 1203496:	d513      	bpl.n	12034c0 <quorem+0x2e0>
 1203498:	3c01      	subs	r4, #1
 120349a:	4598      	cmp	r8, r3
 120349c:	d202      	bcs.n	12034a4 <quorem+0x2c4>
 120349e:	6818      	ldr	r0, [r3, #0]
 12034a0:	3b04      	subs	r3, #4
 12034a2:	b168      	cbz	r0, 12034c0 <quorem+0x2e0>
 12034a4:	6134      	str	r4, [r6, #16]
 12034a6:	4628      	mov	r0, r5
 12034a8:	b003      	add	sp, #12
 12034aa:	e8bd 8ff0 	ldmia.w	sp!, {r4, r5, r6, r7, r8, r9, sl, fp, pc}
 12034ae:	681a      	ldr	r2, [r3, #0]
 12034b0:	3b04      	subs	r3, #4
 12034b2:	2a00      	cmp	r2, #0
 12034b4:	d1f6      	bne.n	12034a4 <quorem+0x2c4>
 12034b6:	6819      	ldr	r1, [r3, #0]
 12034b8:	3c01      	subs	r4, #1
 12034ba:	3b04      	subs	r3, #4
 12034bc:	2900      	cmp	r1, #0
 12034be:	d1f1      	bne.n	12034a4 <quorem+0x2c4>
 12034c0:	3c01      	subs	r4, #1
 12034c2:	4598      	cmp	r8, r3
 12034c4:	d3f3      	bcc.n	12034ae <quorem+0x2ce>
 12034c6:	e7ed      	b.n	12034a4 <quorem+0x2c4>
 12034c8:	2000      	movs	r0, #0
 12034ca:	e7ed      	b.n	12034a8 <quorem+0x2c8>
 12034cc:	0000      	movs	r0, r0
	...

012034d0 <_dtoa_r>:
 12034d0:	e92d 4ff0 	stmdb	sp!, {r4, r5, r6, r7, r8, r9, sl, fp, lr}
 12034d4:	6c01      	ldr	r1, [r0, #64]	; 0x40
 12034d6:	b09f      	sub	sp, #124	; 0x7c
 12034d8:	4681      	mov	r9, r0
 12034da:	9c2b      	ldr	r4, [sp, #172]	; 0xac
 12034dc:	4692      	mov	sl, r2
 12034de:	469b      	mov	fp, r3
 12034e0:	b151      	cbz	r1, 12034f8 <_dtoa_r+0x28>
 12034e2:	6c43      	ldr	r3, [r0, #68]	; 0x44
 12034e4:	2201      	movs	r2, #1
 12034e6:	fa02 f203 	lsl.w	r2, r2, r3
 12034ea:	604b      	str	r3, [r1, #4]
 12034ec:	608a      	str	r2, [r1, #8]
 12034ee:	f001 fc53 	bl	1204d98 <_Bfree>
 12034f2:	2000      	movs	r0, #0
 12034f4:	f8c9 0040 	str.w	r0, [r9, #64]	; 0x40
 12034f8:	f1bb 0800 	subs.w	r8, fp, #0
 12034fc:	db39      	blt.n	1203572 <_dtoa_r+0xa2>
 12034fe:	2100      	movs	r1, #0
 1203500:	6021      	str	r1, [r4, #0]
 1203502:	2400      	movs	r4, #0
 1203504:	4622      	mov	r2, r4
 1203506:	f6c7 74f0 	movt	r4, #32752	; 0x7ff0
 120350a:	f6c7 72f0 	movt	r2, #32752	; 0x7ff0
 120350e:	ea08 0304 	and.w	r3, r8, r4
 1203512:	4293      	cmp	r3, r2
 1203514:	d016      	beq.n	1203544 <_dtoa_r+0x74>
 1203516:	4650      	mov	r0, sl
 1203518:	4659      	mov	r1, fp
 120351a:	2200      	movs	r2, #0
 120351c:	2300      	movs	r3, #0
 120351e:	f7fd fb2b 	bl	1200b78 <__aeabi_dcmpeq>
 1203522:	2800      	cmp	r0, #0
 1203524:	d02b      	beq.n	120357e <_dtoa_r+0xae>
 1203526:	9d2a      	ldr	r5, [sp, #168]	; 0xa8
 1203528:	9c2c      	ldr	r4, [sp, #176]	; 0xb0
 120352a:	2101      	movs	r1, #1
 120352c:	6029      	str	r1, [r5, #0]
 120352e:	2c00      	cmp	r4, #0
 1203530:	f000 80cf 	beq.w	12036d2 <_dtoa_r+0x202>
 1203534:	4aa2      	ldr	r2, [pc, #648]	; (12037c0 <_dtoa_r+0x2f0>)
 1203536:	6022      	str	r2, [r4, #0]
 1203538:	f102 38ff 	add.w	r8, r2, #4294967295
 120353c:	4640      	mov	r0, r8
 120353e:	b01f      	add	sp, #124	; 0x7c
 1203540:	e8bd 8ff0 	ldmia.w	sp!, {r4, r5, r6, r7, r8, r9, sl, fp, pc}
 1203544:	9c2a      	ldr	r4, [sp, #168]	; 0xa8
 1203546:	f242 750f 	movw	r5, #9999	; 0x270f
 120354a:	6025      	str	r5, [r4, #0]
 120354c:	f1ba 0f00 	cmp.w	sl, #0
 1203550:	f000 80a6 	beq.w	12036a0 <_dtoa_r+0x1d0>
 1203554:	f8df 8270 	ldr.w	r8, [pc, #624]	; 12037c8 <_dtoa_r+0x2f8>
 1203558:	9d2c      	ldr	r5, [sp, #176]	; 0xb0
 120355a:	2d00      	cmp	r5, #0
 120355c:	d0ee      	beq.n	120353c <_dtoa_r+0x6c>
 120355e:	f898 4003 	ldrb.w	r4, [r8, #3]
 1203562:	2c00      	cmp	r4, #0
 1203564:	f000 8208 	beq.w	1203978 <_dtoa_r+0x4a8>
 1203568:	f108 0108 	add.w	r1, r8, #8
 120356c:	9c2c      	ldr	r4, [sp, #176]	; 0xb0
 120356e:	6021      	str	r1, [r4, #0]
 1203570:	e7e4      	b.n	120353c <_dtoa_r+0x6c>
 1203572:	f028 4800 	bic.w	r8, r8, #2147483648	; 0x80000000
 1203576:	2501      	movs	r5, #1
 1203578:	6025      	str	r5, [r4, #0]
 120357a:	46c3      	mov	fp, r8
 120357c:	e7c1      	b.n	1203502 <_dtoa_r+0x32>
 120357e:	ae1d      	add	r6, sp, #116	; 0x74
 1203580:	af1c      	add	r7, sp, #112	; 0x70
 1203582:	4652      	mov	r2, sl
 1203584:	9600      	str	r6, [sp, #0]
 1203586:	9701      	str	r7, [sp, #4]
 1203588:	4648      	mov	r0, r9
 120358a:	465b      	mov	r3, fp
 120358c:	f002 f884 	bl	1205698 <__d2b>
 1203590:	f3c8 520a 	ubfx	r2, r8, #20, #11
 1203594:	900b      	str	r0, [sp, #44]	; 0x2c
 1203596:	2a00      	cmp	r2, #0
 1203598:	f040 808c 	bne.w	12036b4 <_dtoa_r+0x1e4>
 120359c:	9f1c      	ldr	r7, [sp, #112]	; 0x70
 120359e:	981d      	ldr	r0, [sp, #116]	; 0x74
 12035a0:	f46f 6182 	mvn.w	r1, #1040	; 0x410
 12035a4:	183e      	adds	r6, r7, r0
 12035a6:	428e      	cmp	r6, r1
 12035a8:	f2c0 8318 	blt.w	1203bdc <_dtoa_r+0x70c>
 12035ac:	f64f 450e 	movw	r5, #64526	; 0xfc0e
 12035b0:	f6cf 75ff 	movt	r5, #65535	; 0xffff
 12035b4:	1ba8      	subs	r0, r5, r6
 12035b6:	f206 4212 	addw	r2, r6, #1042	; 0x412
 12035ba:	fa08 f100 	lsl.w	r1, r8, r0
 12035be:	fa2a f302 	lsr.w	r3, sl, r2
 12035c2:	ea41 0003 	orr.w	r0, r1, r3
 12035c6:	f7fc fff9 	bl	12005bc <__aeabi_ui2d>
 12035ca:	2401      	movs	r4, #1
 12035cc:	f1a1 71f8 	sub.w	r1, r1, #32505856	; 0x1f00000
 12035d0:	3e01      	subs	r6, #1
 12035d2:	940c      	str	r4, [sp, #48]	; 0x30
 12035d4:	2300      	movs	r3, #0
 12035d6:	2200      	movs	r2, #0
 12035d8:	f6c3 73f8 	movt	r3, #16376	; 0x3ff8
 12035dc:	f7fc feb0 	bl	1200340 <__aeabi_dsub>
 12035e0:	a371      	add	r3, pc, #452	; (adr r3, 12037a8 <_dtoa_r+0x2d8>)
 12035e2:	e9d3 2300 	ldrd	r2, r3, [r3]
 12035e6:	f7fd f85f 	bl	12006a8 <__aeabi_dmul>
 12035ea:	a371      	add	r3, pc, #452	; (adr r3, 12037b0 <_dtoa_r+0x2e0>)
 12035ec:	e9d3 2300 	ldrd	r2, r3, [r3]
 12035f0:	f7fc fea8 	bl	1200344 <__adddf3>
 12035f4:	4604      	mov	r4, r0
 12035f6:	4630      	mov	r0, r6
 12035f8:	460d      	mov	r5, r1
 12035fa:	f7fc ffef 	bl	12005dc <__aeabi_i2d>
 12035fe:	a36e      	add	r3, pc, #440	; (adr r3, 12037b8 <_dtoa_r+0x2e8>)
 1203600:	e9d3 2300 	ldrd	r2, r3, [r3]
 1203604:	f7fd f850 	bl	12006a8 <__aeabi_dmul>
 1203608:	4602      	mov	r2, r0
 120360a:	460b      	mov	r3, r1
 120360c:	4620      	mov	r0, r4
 120360e:	4629      	mov	r1, r5
 1203610:	f7fc fe98 	bl	1200344 <__adddf3>
 1203614:	4604      	mov	r4, r0
 1203616:	460d      	mov	r5, r1
 1203618:	f7fd fae0 	bl	1200bdc <__aeabi_d2iz>
 120361c:	4629      	mov	r1, r5
 120361e:	9007      	str	r0, [sp, #28]
 1203620:	2200      	movs	r2, #0
 1203622:	4620      	mov	r0, r4
 1203624:	2300      	movs	r3, #0
 1203626:	f7fd fab1 	bl	1200b8c <__aeabi_dcmplt>
 120362a:	2800      	cmp	r0, #0
 120362c:	f040 82ac 	bne.w	1203b88 <_dtoa_r+0x6b8>
 1203630:	9c07      	ldr	r4, [sp, #28]
 1203632:	2c16      	cmp	r4, #22
 1203634:	f200 82a5 	bhi.w	1203b82 <_dtoa_r+0x6b2>
 1203638:	4d62      	ldr	r5, [pc, #392]	; (12037c4 <_dtoa_r+0x2f4>)
 120363a:	4652      	mov	r2, sl
 120363c:	eb05 00c4 	add.w	r0, r5, r4, lsl #3
 1203640:	465b      	mov	r3, fp
 1203642:	c803      	ldmia	r0, {r0, r1}
 1203644:	f7fd fac0 	bl	1200bc8 <__aeabi_dcmpgt>
 1203648:	2800      	cmp	r0, #0
 120364a:	f000 82cf 	beq.w	1203bec <_dtoa_r+0x71c>
 120364e:	9a07      	ldr	r2, [sp, #28]
 1203650:	2400      	movs	r4, #0
 1203652:	1e51      	subs	r1, r2, #1
 1203654:	9107      	str	r1, [sp, #28]
 1203656:	9410      	str	r4, [sp, #64]	; 0x40
 1203658:	1bbe      	subs	r6, r7, r6
 120365a:	3e01      	subs	r6, #1
 120365c:	f100 82ab 	bmi.w	1203bb6 <_dtoa_r+0x6e6>
 1203660:	2500      	movs	r5, #0
 1203662:	9608      	str	r6, [sp, #32]
 1203664:	950a      	str	r5, [sp, #40]	; 0x28
 1203666:	9807      	ldr	r0, [sp, #28]
 1203668:	2800      	cmp	r0, #0
 120366a:	f2c0 829b 	blt.w	1203ba4 <_dtoa_r+0x6d4>
 120366e:	9a08      	ldr	r2, [sp, #32]
 1203670:	900f      	str	r0, [sp, #60]	; 0x3c
 1203672:	1811      	adds	r1, r2, r0
 1203674:	2000      	movs	r0, #0
 1203676:	9108      	str	r1, [sp, #32]
 1203678:	900e      	str	r0, [sp, #56]	; 0x38
 120367a:	9c28      	ldr	r4, [sp, #160]	; 0xa0
 120367c:	2c09      	cmp	r4, #9
 120367e:	d82b      	bhi.n	12036d8 <_dtoa_r+0x208>
 1203680:	2c05      	cmp	r4, #5
 1203682:	f341 801e 	ble.w	12046c2 <_dtoa_r+0x11f2>
 1203686:	1f23      	subs	r3, r4, #4
 1203688:	9328      	str	r3, [sp, #160]	; 0xa0
 120368a:	2500      	movs	r5, #0
 120368c:	9a28      	ldr	r2, [sp, #160]	; 0xa0
 120368e:	1e91      	subs	r1, r2, #2
 1203690:	2903      	cmp	r1, #3
 1203692:	d823      	bhi.n	12036dc <_dtoa_r+0x20c>
 1203694:	e8df f011 	tbh	[pc, r1, lsl #1]
 1203698:	05130525 	ldreq	r0, [r3, #-1317]	; 0x525
 120369c:	0522032b 	streq	r0, [r2, #-811]!	; 0x32b
 12036a0:	4b49      	ldr	r3, [pc, #292]	; (12037c8 <_dtoa_r+0x2f8>)
 12036a2:	484a      	ldr	r0, [pc, #296]	; (12037cc <_dtoa_r+0x2fc>)
 12036a4:	f3c8 0813 	ubfx	r8, r8, #0, #20
 12036a8:	f1b8 0f00 	cmp.w	r8, #0
 12036ac:	bf0c      	ite	eq
 12036ae:	4680      	moveq	r8, r0
 12036b0:	4698      	movne	r8, r3
 12036b2:	e751      	b.n	1203558 <_dtoa_r+0x88>
 12036b4:	f02b 477f 	bic.w	r7, fp, #4278190080	; 0xff000000
 12036b8:	f427 0470 	bic.w	r4, r7, #15728640	; 0xf00000
 12036bc:	f044 557f 	orr.w	r5, r4, #1069547520	; 0x3fc00000
 12036c0:	f2a2 36ff 	subw	r6, r2, #1023	; 0x3ff
 12036c4:	2200      	movs	r2, #0
 12036c6:	4650      	mov	r0, sl
 12036c8:	f445 1140 	orr.w	r1, r5, #3145728	; 0x300000
 12036cc:	9f1c      	ldr	r7, [sp, #112]	; 0x70
 12036ce:	920c      	str	r2, [sp, #48]	; 0x30
 12036d0:	e780      	b.n	12035d4 <_dtoa_r+0x104>
 12036d2:	f8df 80fc 	ldr.w	r8, [pc, #252]	; 12037d0 <_dtoa_r+0x300>
 12036d6:	e731      	b.n	120353c <_dtoa_r+0x6c>
 12036d8:	2500      	movs	r5, #0
 12036da:	9528      	str	r5, [sp, #160]	; 0xa0
 12036dc:	2400      	movs	r4, #0
 12036de:	4621      	mov	r1, r4
 12036e0:	f8c9 4044 	str.w	r4, [r9, #68]	; 0x44
 12036e4:	4648      	mov	r0, r9
 12036e6:	f001 fb31 	bl	1204d4c <_Balloc>
 12036ea:	f04f 33ff 	mov.w	r3, #4294967295
 12036ee:	2101      	movs	r1, #1
 12036f0:	4680      	mov	r8, r0
 12036f2:	9309      	str	r3, [sp, #36]	; 0x24
 12036f4:	f8c9 0040 	str.w	r0, [r9, #64]	; 0x40
 12036f8:	9311      	str	r3, [sp, #68]	; 0x44
 12036fa:	9429      	str	r4, [sp, #164]	; 0xa4
 12036fc:	910d      	str	r1, [sp, #52]	; 0x34
 12036fe:	981d      	ldr	r0, [sp, #116]	; 0x74
 1203700:	2800      	cmp	r0, #0
 1203702:	f2c0 813c 	blt.w	120397e <_dtoa_r+0x4ae>
 1203706:	9a07      	ldr	r2, [sp, #28]
 1203708:	2a0e      	cmp	r2, #14
 120370a:	f300 8138 	bgt.w	120397e <_dtoa_r+0x4ae>
 120370e:	4d2d      	ldr	r5, [pc, #180]	; (12037c4 <_dtoa_r+0x2f4>)
 1203710:	9b29      	ldr	r3, [sp, #164]	; 0xa4
 1203712:	eb05 00c2 	add.w	r0, r5, r2, lsl #3
 1203716:	2b00      	cmp	r3, #0
 1203718:	e9d0 4500 	ldrd	r4, r5, [r0]
 120371c:	e9cd 4504 	strd	r4, r5, [sp, #16]
 1203720:	f2c0 84e2 	blt.w	12040e8 <_dtoa_r+0xc18>
 1203724:	e9dd 2304 	ldrd	r2, r3, [sp, #16]
 1203728:	4650      	mov	r0, sl
 120372a:	4659      	mov	r1, fp
 120372c:	f7fd f8e6 	bl	12008fc <__aeabi_ddiv>
 1203730:	f7fd fa54 	bl	1200bdc <__aeabi_d2iz>
 1203734:	4606      	mov	r6, r0
 1203736:	f7fc ff51 	bl	12005dc <__aeabi_i2d>
 120373a:	e9dd 2304 	ldrd	r2, r3, [sp, #16]
 120373e:	f7fc ffb3 	bl	12006a8 <__aeabi_dmul>
 1203742:	4602      	mov	r2, r0
 1203744:	460b      	mov	r3, r1
 1203746:	4650      	mov	r0, sl
 1203748:	4659      	mov	r1, fp
 120374a:	f7fc fdf9 	bl	1200340 <__aeabi_dsub>
 120374e:	9b09      	ldr	r3, [sp, #36]	; 0x24
 1203750:	f106 0230 	add.w	r2, r6, #48	; 0x30
 1203754:	46c2      	mov	sl, r8
 1203756:	2b01      	cmp	r3, #1
 1203758:	4604      	mov	r4, r0
 120375a:	460d      	mov	r5, r1
 120375c:	f80a 2b01 	strb.w	r2, [sl], #1
 1203760:	f000 8095 	beq.w	120388e <_dtoa_r+0x3be>
 1203764:	2300      	movs	r3, #0
 1203766:	2200      	movs	r2, #0
 1203768:	f2c4 0324 	movt	r3, #16420	; 0x4024
 120376c:	f7fc ff9c 	bl	12006a8 <__aeabi_dmul>
 1203770:	2200      	movs	r2, #0
 1203772:	2300      	movs	r3, #0
 1203774:	4604      	mov	r4, r0
 1203776:	460d      	mov	r5, r1
 1203778:	f7fd f9fe 	bl	1200b78 <__aeabi_dcmpeq>
 120377c:	2800      	cmp	r0, #0
 120377e:	f040 80be 	bne.w	12038fe <_dtoa_r+0x42e>
 1203782:	9e09      	ldr	r6, [sp, #36]	; 0x24
 1203784:	f108 0702 	add.w	r7, r8, #2
 1203788:	eb08 0b06 	add.w	fp, r8, r6
 120378c:	ebc7 000b 	rsb	r0, r7, fp
 1203790:	07c2      	lsls	r2, r0, #31
 1203792:	f100 80c6 	bmi.w	1203922 <_dtoa_r+0x452>
 1203796:	f8cd 8018 	str.w	r8, [sp, #24]
 120379a:	f8cd 9020 	str.w	r9, [sp, #32]
 120379e:	e9dd 8904 	ldrd	r8, r9, [sp, #16]
 12037a2:	e04c      	b.n	120383e <_dtoa_r+0x36e>
 12037a4:	f3af 8000 	nop.w
 12037a8:	636f4361 	cmnvs	pc, #-2080374783	; 0x84000001
 12037ac:	3fd287a7 	svccc	0x00d287a7
 12037b0:	8b60c8b3 	blhi	2a35a84 <_bin_end+0x182f03c>
 12037b4:	3fc68a28 	svccc	0x00c68a28
 12037b8:	509f79fb 			; <UNDEFINED> instruction: 0x509f79fb
 12037bc:	3fd34413 	svccc	0x00d34413
 12037c0:	012061ad 	teqeq	r0, sp, lsr #3
 12037c4:	01200248 	teqeq	r0, r8, asr #4
 12037c8:	012061bc 			; <UNDEFINED> instruction: 0x012061bc
 12037cc:	012061b0 			; <UNDEFINED> instruction: 0x012061b0
 12037d0:	012061ac 	teqeq	r0, ip, lsr #3
 12037d4:	f7fc ff68 	bl	12006a8 <__aeabi_dmul>
 12037d8:	2200      	movs	r2, #0
 12037da:	2300      	movs	r3, #0
 12037dc:	4604      	mov	r4, r0
 12037de:	460d      	mov	r5, r1
 12037e0:	f7fd f9ca 	bl	1200b78 <__aeabi_dcmpeq>
 12037e4:	4642      	mov	r2, r8
 12037e6:	464b      	mov	r3, r9
 12037e8:	2800      	cmp	r0, #0
 12037ea:	f040 8575 	bne.w	12042d8 <_dtoa_r+0xe08>
 12037ee:	4620      	mov	r0, r4
 12037f0:	4629      	mov	r1, r5
 12037f2:	f7fd f883 	bl	12008fc <__aeabi_ddiv>
 12037f6:	f7fd f9f1 	bl	1200bdc <__aeabi_d2iz>
 12037fa:	4606      	mov	r6, r0
 12037fc:	f7fc feee 	bl	12005dc <__aeabi_i2d>
 1203800:	4642      	mov	r2, r8
 1203802:	464b      	mov	r3, r9
 1203804:	f7fc ff50 	bl	12006a8 <__aeabi_dmul>
 1203808:	4602      	mov	r2, r0
 120380a:	460b      	mov	r3, r1
 120380c:	4620      	mov	r0, r4
 120380e:	4629      	mov	r1, r5
 1203810:	f7fc fd96 	bl	1200340 <__aeabi_dsub>
 1203814:	3630      	adds	r6, #48	; 0x30
 1203816:	2300      	movs	r3, #0
 1203818:	2200      	movs	r2, #0
 120381a:	f2c4 0324 	movt	r3, #16420	; 0x4024
 120381e:	f807 6c01 	strb.w	r6, [r7, #-1]
 1203822:	f7fc ff41 	bl	12006a8 <__aeabi_dmul>
 1203826:	2200      	movs	r2, #0
 1203828:	2300      	movs	r3, #0
 120382a:	46ba      	mov	sl, r7
 120382c:	4604      	mov	r4, r0
 120382e:	460d      	mov	r5, r1
 1203830:	f107 0701 	add.w	r7, r7, #1
 1203834:	f7fd f9a0 	bl	1200b78 <__aeabi_dcmpeq>
 1203838:	2800      	cmp	r0, #0
 120383a:	f040 854d 	bne.w	12042d8 <_dtoa_r+0xe08>
 120383e:	4642      	mov	r2, r8
 1203840:	464b      	mov	r3, r9
 1203842:	4620      	mov	r0, r4
 1203844:	4629      	mov	r1, r5
 1203846:	f7fd f859 	bl	12008fc <__aeabi_ddiv>
 120384a:	f7fd f9c7 	bl	1200bdc <__aeabi_d2iz>
 120384e:	4606      	mov	r6, r0
 1203850:	f7fc fec4 	bl	12005dc <__aeabi_i2d>
 1203854:	4642      	mov	r2, r8
 1203856:	464b      	mov	r3, r9
 1203858:	f7fc ff26 	bl	12006a8 <__aeabi_dmul>
 120385c:	4602      	mov	r2, r0
 120385e:	460b      	mov	r3, r1
 1203860:	4620      	mov	r0, r4
 1203862:	4629      	mov	r1, r5
 1203864:	f7fc fd6c 	bl	1200340 <__aeabi_dsub>
 1203868:	2300      	movs	r3, #0
 120386a:	2200      	movs	r2, #0
 120386c:	f106 0c30 	add.w	ip, r6, #48	; 0x30
 1203870:	455f      	cmp	r7, fp
 1203872:	f807 cc01 	strb.w	ip, [r7, #-1]
 1203876:	46ba      	mov	sl, r7
 1203878:	4604      	mov	r4, r0
 120387a:	460d      	mov	r5, r1
 120387c:	f2c4 0324 	movt	r3, #16420	; 0x4024
 1203880:	f107 0701 	add.w	r7, r7, #1
 1203884:	d1a6      	bne.n	12037d4 <_dtoa_r+0x304>
 1203886:	f8dd 8018 	ldr.w	r8, [sp, #24]
 120388a:	f8dd 9020 	ldr.w	r9, [sp, #32]
 120388e:	4622      	mov	r2, r4
 1203890:	462b      	mov	r3, r5
 1203892:	4620      	mov	r0, r4
 1203894:	4629      	mov	r1, r5
 1203896:	f7fc fd55 	bl	1200344 <__adddf3>
 120389a:	4604      	mov	r4, r0
 120389c:	460d      	mov	r5, r1
 120389e:	4622      	mov	r2, r4
 12038a0:	e9dd 0104 	ldrd	r0, r1, [sp, #16]
 12038a4:	462b      	mov	r3, r5
 12038a6:	f7fd f971 	bl	1200b8c <__aeabi_dcmplt>
 12038aa:	b940      	cbnz	r0, 12038be <_dtoa_r+0x3ee>
 12038ac:	e9dd 0104 	ldrd	r0, r1, [sp, #16]
 12038b0:	4622      	mov	r2, r4
 12038b2:	462b      	mov	r3, r5
 12038b4:	f7fd f960 	bl	1200b78 <__aeabi_dcmpeq>
 12038b8:	b308      	cbz	r0, 12038fe <_dtoa_r+0x42e>
 12038ba:	07f0      	lsls	r0, r6, #31
 12038bc:	d51f      	bpl.n	12038fe <_dtoa_r+0x42e>
 12038be:	f81a 7c01 	ldrb.w	r7, [sl, #-1]
 12038c2:	ea6f 0108 	mvn.w	r1, r8
 12038c6:	eb0a 0201 	add.w	r2, sl, r1
 12038ca:	07d1      	lsls	r1, r2, #31
 12038cc:	d506      	bpl.n	12038dc <_dtoa_r+0x40c>
 12038ce:	2f39      	cmp	r7, #57	; 0x39
 12038d0:	f10a 33ff 	add.w	r3, sl, #4294967295
 12038d4:	d110      	bne.n	12038f8 <_dtoa_r+0x428>
 12038d6:	f813 7c01 	ldrb.w	r7, [r3, #-1]
 12038da:	469a      	mov	sl, r3
 12038dc:	2f39      	cmp	r7, #57	; 0x39
 12038de:	f10a 33ff 	add.w	r3, sl, #4294967295
 12038e2:	d109      	bne.n	12038f8 <_dtoa_r+0x428>
 12038e4:	4598      	cmp	r8, r3
 12038e6:	f000 8505 	beq.w	12042f4 <_dtoa_r+0xe24>
 12038ea:	f813 7c01 	ldrb.w	r7, [r3, #-1]
 12038ee:	469a      	mov	sl, r3
 12038f0:	2f39      	cmp	r7, #57	; 0x39
 12038f2:	f103 33ff 	add.w	r3, r3, #4294967295
 12038f6:	d0ee      	beq.n	12038d6 <_dtoa_r+0x406>
 12038f8:	1c78      	adds	r0, r7, #1
 12038fa:	b2c4      	uxtb	r4, r0
 12038fc:	701c      	strb	r4, [r3, #0]
 12038fe:	4648      	mov	r0, r9
 1203900:	990b      	ldr	r1, [sp, #44]	; 0x2c
 1203902:	f001 fa49 	bl	1204d98 <_Bfree>
 1203906:	2400      	movs	r4, #0
 1203908:	9b07      	ldr	r3, [sp, #28]
 120390a:	f88a 4000 	strb.w	r4, [sl]
 120390e:	9d2a      	ldr	r5, [sp, #168]	; 0xa8
 1203910:	9c2c      	ldr	r4, [sp, #176]	; 0xb0
 1203912:	1c58      	adds	r0, r3, #1
 1203914:	6028      	str	r0, [r5, #0]
 1203916:	2c00      	cmp	r4, #0
 1203918:	f43f ae10 	beq.w	120353c <_dtoa_r+0x6c>
 120391c:	f8c4 a000 	str.w	sl, [r4]
 1203920:	e60c      	b.n	120353c <_dtoa_r+0x6c>
 1203922:	e9dd 2304 	ldrd	r2, r3, [sp, #16]
 1203926:	4620      	mov	r0, r4
 1203928:	4629      	mov	r1, r5
 120392a:	f7fc ffe7 	bl	12008fc <__aeabi_ddiv>
 120392e:	f7fd f955 	bl	1200bdc <__aeabi_d2iz>
 1203932:	4606      	mov	r6, r0
 1203934:	f7fc fe52 	bl	12005dc <__aeabi_i2d>
 1203938:	e9dd 2304 	ldrd	r2, r3, [sp, #16]
 120393c:	f7fc feb4 	bl	12006a8 <__aeabi_dmul>
 1203940:	4602      	mov	r2, r0
 1203942:	460b      	mov	r3, r1
 1203944:	4620      	mov	r0, r4
 1203946:	4629      	mov	r1, r5
 1203948:	f7fc fcfa 	bl	1200340 <__aeabi_dsub>
 120394c:	3630      	adds	r6, #48	; 0x30
 120394e:	2300      	movs	r3, #0
 1203950:	2200      	movs	r2, #0
 1203952:	f2c4 0324 	movt	r3, #16420	; 0x4024
 1203956:	f807 6c01 	strb.w	r6, [r7, #-1]
 120395a:	f7fc fea5 	bl	12006a8 <__aeabi_dmul>
 120395e:	2200      	movs	r2, #0
 1203960:	2300      	movs	r3, #0
 1203962:	46ba      	mov	sl, r7
 1203964:	4604      	mov	r4, r0
 1203966:	460d      	mov	r5, r1
 1203968:	f108 0703 	add.w	r7, r8, #3
 120396c:	f7fd f904 	bl	1200b78 <__aeabi_dcmpeq>
 1203970:	2800      	cmp	r0, #0
 1203972:	f43f af10 	beq.w	1203796 <_dtoa_r+0x2c6>
 1203976:	e7c2      	b.n	12038fe <_dtoa_r+0x42e>
 1203978:	f108 0103 	add.w	r1, r8, #3
 120397c:	e5f6      	b.n	120356c <_dtoa_r+0x9c>
 120397e:	9f0d      	ldr	r7, [sp, #52]	; 0x34
 1203980:	2f00      	cmp	r7, #0
 1203982:	f000 811d 	beq.w	1203bc0 <_dtoa_r+0x6f0>
 1203986:	9c28      	ldr	r4, [sp, #160]	; 0xa0
 1203988:	2c01      	cmp	r4, #1
 120398a:	f340 83dc 	ble.w	1204146 <_dtoa_r+0xc76>
 120398e:	9909      	ldr	r1, [sp, #36]	; 0x24
 1203990:	9a0e      	ldr	r2, [sp, #56]	; 0x38
 1203992:	1e48      	subs	r0, r1, #1
 1203994:	4282      	cmp	r2, r0
 1203996:	f2c0 84b8 	blt.w	120430a <_dtoa_r+0xe3a>
 120399a:	1a15      	subs	r5, r2, r0
 120399c:	9909      	ldr	r1, [sp, #36]	; 0x24
 120399e:	2900      	cmp	r1, #0
 12039a0:	f2c0 8607 	blt.w	12045b2 <_dtoa_r+0x10e2>
 12039a4:	9c0a      	ldr	r4, [sp, #40]	; 0x28
 12039a6:	9f09      	ldr	r7, [sp, #36]	; 0x24
 12039a8:	9a0a      	ldr	r2, [sp, #40]	; 0x28
 12039aa:	4648      	mov	r0, r9
 12039ac:	19d3      	adds	r3, r2, r7
 12039ae:	9a08      	ldr	r2, [sp, #32]
 12039b0:	2101      	movs	r1, #1
 12039b2:	19d7      	adds	r7, r2, r7
 12039b4:	930a      	str	r3, [sp, #40]	; 0x28
 12039b6:	9708      	str	r7, [sp, #32]
 12039b8:	f001 fac2 	bl	1204f40 <__i2b>
 12039bc:	900c      	str	r0, [sp, #48]	; 0x30
 12039be:	b164      	cbz	r4, 12039da <_dtoa_r+0x50a>
 12039c0:	9808      	ldr	r0, [sp, #32]
 12039c2:	2800      	cmp	r0, #0
 12039c4:	dd09      	ble.n	12039da <_dtoa_r+0x50a>
 12039c6:	990a      	ldr	r1, [sp, #40]	; 0x28
 12039c8:	4603      	mov	r3, r0
 12039ca:	42a3      	cmp	r3, r4
 12039cc:	bfa8      	it	ge
 12039ce:	4623      	movge	r3, r4
 12039d0:	1aca      	subs	r2, r1, r3
 12039d2:	1ac7      	subs	r7, r0, r3
 12039d4:	920a      	str	r2, [sp, #40]	; 0x28
 12039d6:	1ae4      	subs	r4, r4, r3
 12039d8:	9708      	str	r7, [sp, #32]
 12039da:	980e      	ldr	r0, [sp, #56]	; 0x38
 12039dc:	2800      	cmp	r0, #0
 12039de:	dd1a      	ble.n	1203a16 <_dtoa_r+0x546>
 12039e0:	9b0d      	ldr	r3, [sp, #52]	; 0x34
 12039e2:	2b00      	cmp	r3, #0
 12039e4:	f000 847e 	beq.w	12042e4 <_dtoa_r+0xe14>
 12039e8:	2d00      	cmp	r5, #0
 12039ea:	dd10      	ble.n	1203a0e <_dtoa_r+0x53e>
 12039ec:	990c      	ldr	r1, [sp, #48]	; 0x30
 12039ee:	462a      	mov	r2, r5
 12039f0:	4648      	mov	r0, r9
 12039f2:	f001 fc17 	bl	1205224 <__pow5mult>
 12039f6:	900c      	str	r0, [sp, #48]	; 0x30
 12039f8:	990c      	ldr	r1, [sp, #48]	; 0x30
 12039fa:	9a0b      	ldr	r2, [sp, #44]	; 0x2c
 12039fc:	4648      	mov	r0, r9
 12039fe:	f001 faa9 	bl	1204f54 <__multiply>
 1203a02:	990b      	ldr	r1, [sp, #44]	; 0x2c
 1203a04:	4606      	mov	r6, r0
 1203a06:	4648      	mov	r0, r9
 1203a08:	f001 f9c6 	bl	1204d98 <_Bfree>
 1203a0c:	960b      	str	r6, [sp, #44]	; 0x2c
 1203a0e:	990e      	ldr	r1, [sp, #56]	; 0x38
 1203a10:	1b4a      	subs	r2, r1, r5
 1203a12:	f040 8392 	bne.w	120413a <_dtoa_r+0xc6a>
 1203a16:	2101      	movs	r1, #1
 1203a18:	4648      	mov	r0, r9
 1203a1a:	f001 fa91 	bl	1204f40 <__i2b>
 1203a1e:	9d0f      	ldr	r5, [sp, #60]	; 0x3c
 1203a20:	4607      	mov	r7, r0
 1203a22:	2d00      	cmp	r5, #0
 1203a24:	dd05      	ble.n	1203a32 <_dtoa_r+0x562>
 1203a26:	4639      	mov	r1, r7
 1203a28:	4648      	mov	r0, r9
 1203a2a:	462a      	mov	r2, r5
 1203a2c:	f001 fbfa 	bl	1205224 <__pow5mult>
 1203a30:	4607      	mov	r7, r0
 1203a32:	9a28      	ldr	r2, [sp, #160]	; 0xa0
 1203a34:	2a01      	cmp	r2, #1
 1203a36:	f340 8141 	ble.w	1203cbc <_dtoa_r+0x7ec>
 1203a3a:	2500      	movs	r5, #0
 1203a3c:	990f      	ldr	r1, [sp, #60]	; 0x3c
 1203a3e:	2900      	cmp	r1, #0
 1203a40:	f040 83f5 	bne.w	120422e <_dtoa_r+0xd5e>
 1203a44:	2201      	movs	r2, #1
 1203a46:	9908      	ldr	r1, [sp, #32]
 1203a48:	1852      	adds	r2, r2, r1
 1203a4a:	f012 001f 	ands.w	r0, r2, #31
 1203a4e:	f000 80bc 	beq.w	1203bca <_dtoa_r+0x6fa>
 1203a52:	f1c0 0220 	rsb	r2, r0, #32
 1203a56:	2a04      	cmp	r2, #4
 1203a58:	f340 862d 	ble.w	12046b6 <_dtoa_r+0x11e6>
 1203a5c:	9a0a      	ldr	r2, [sp, #40]	; 0x28
 1203a5e:	f1c0 001c 	rsb	r0, r0, #28
 1203a62:	1813      	adds	r3, r2, r0
 1203a64:	1809      	adds	r1, r1, r0
 1203a66:	930a      	str	r3, [sp, #40]	; 0x28
 1203a68:	1824      	adds	r4, r4, r0
 1203a6a:	9108      	str	r1, [sp, #32]
 1203a6c:	9a0a      	ldr	r2, [sp, #40]	; 0x28
 1203a6e:	2a00      	cmp	r2, #0
 1203a70:	dd04      	ble.n	1203a7c <_dtoa_r+0x5ac>
 1203a72:	4648      	mov	r0, r9
 1203a74:	990b      	ldr	r1, [sp, #44]	; 0x2c
 1203a76:	f001 fc1f 	bl	12052b8 <__lshift>
 1203a7a:	900b      	str	r0, [sp, #44]	; 0x2c
 1203a7c:	9a08      	ldr	r2, [sp, #32]
 1203a7e:	2a00      	cmp	r2, #0
 1203a80:	dd04      	ble.n	1203a8c <_dtoa_r+0x5bc>
 1203a82:	4639      	mov	r1, r7
 1203a84:	4648      	mov	r0, r9
 1203a86:	f001 fc17 	bl	12052b8 <__lshift>
 1203a8a:	4607      	mov	r7, r0
 1203a8c:	9810      	ldr	r0, [sp, #64]	; 0x40
 1203a8e:	2800      	cmp	r0, #0
 1203a90:	f040 83b5 	bne.w	12041fe <_dtoa_r+0xd2e>
 1203a94:	9909      	ldr	r1, [sp, #36]	; 0x24
 1203a96:	2900      	cmp	r1, #0
 1203a98:	f340 83d2 	ble.w	1204240 <_dtoa_r+0xd70>
 1203a9c:	980d      	ldr	r0, [sp, #52]	; 0x34
 1203a9e:	2800      	cmp	r0, #0
 1203aa0:	f040 80a6 	bne.w	1203bf0 <_dtoa_r+0x720>
 1203aa4:	9c09      	ldr	r4, [sp, #36]	; 0x24
 1203aa6:	9d0d      	ldr	r5, [sp, #52]	; 0x34
 1203aa8:	07e3      	lsls	r3, r4, #31
 1203aaa:	f140 8389 	bpl.w	12041c0 <_dtoa_r+0xcf0>
 1203aae:	46a2      	mov	sl, r4
 1203ab0:	9e0b      	ldr	r6, [sp, #44]	; 0x2c
 1203ab2:	e010      	b.n	1203ad6 <_dtoa_r+0x606>
 1203ab4:	f001 f97a 	bl	1204dac <__multadd>
 1203ab8:	4639      	mov	r1, r7
 1203aba:	4606      	mov	r6, r0
 1203abc:	f7ff fb90 	bl	12031e0 <quorem>
 1203ac0:	3030      	adds	r0, #48	; 0x30
 1203ac2:	f808 0004 	strb.w	r0, [r8, r4]
 1203ac6:	4631      	mov	r1, r6
 1203ac8:	4648      	mov	r0, r9
 1203aca:	220a      	movs	r2, #10
 1203acc:	2300      	movs	r3, #0
 1203ace:	f001 f96d 	bl	1204dac <__multadd>
 1203ad2:	1c65      	adds	r5, r4, #1
 1203ad4:	4606      	mov	r6, r0
 1203ad6:	4639      	mov	r1, r7
 1203ad8:	4630      	mov	r0, r6
 1203ada:	f7ff fb81 	bl	12031e0 <quorem>
 1203ade:	1c6c      	adds	r4, r5, #1
 1203ae0:	f100 0b30 	add.w	fp, r0, #48	; 0x30
 1203ae4:	220a      	movs	r2, #10
 1203ae6:	2300      	movs	r3, #0
 1203ae8:	45a2      	cmp	sl, r4
 1203aea:	4631      	mov	r1, r6
 1203aec:	4648      	mov	r0, r9
 1203aee:	f808 b005 	strb.w	fp, [r8, r5]
 1203af2:	dcdf      	bgt.n	1203ab4 <_dtoa_r+0x5e4>
 1203af4:	960b      	str	r6, [sp, #44]	; 0x2c
 1203af6:	9909      	ldr	r1, [sp, #36]	; 0x24
 1203af8:	2500      	movs	r5, #0
 1203afa:	2901      	cmp	r1, #1
 1203afc:	bfac      	ite	ge
 1203afe:	eb08 0a01 	addge.w	sl, r8, r1
 1203b02:	f108 0a01 	addlt.w	sl, r8, #1
 1203b06:	2201      	movs	r2, #1
 1203b08:	990b      	ldr	r1, [sp, #44]	; 0x2c
 1203b0a:	4648      	mov	r0, r9
 1203b0c:	f001 fbd4 	bl	12052b8 <__lshift>
 1203b10:	4639      	mov	r1, r7
 1203b12:	900b      	str	r0, [sp, #44]	; 0x2c
 1203b14:	f001 fc86 	bl	1205424 <__mcmp>
 1203b18:	2800      	cmp	r0, #0
 1203b1a:	f340 842b 	ble.w	1204374 <_dtoa_r+0xea4>
 1203b1e:	f81a 2c01 	ldrb.w	r2, [sl, #-1]
 1203b22:	ea6f 0308 	mvn.w	r3, r8
 1203b26:	eb0a 0103 	add.w	r1, sl, r3
 1203b2a:	07cc      	lsls	r4, r1, #31
 1203b2c:	d506      	bpl.n	1203b3c <_dtoa_r+0x66c>
 1203b2e:	2a39      	cmp	r2, #57	; 0x39
 1203b30:	f10a 34ff 	add.w	r4, sl, #4294967295
 1203b34:	d110      	bne.n	1203b58 <_dtoa_r+0x688>
 1203b36:	f814 2c01 	ldrb.w	r2, [r4, #-1]
 1203b3a:	46a2      	mov	sl, r4
 1203b3c:	2a39      	cmp	r2, #57	; 0x39
 1203b3e:	f10a 34ff 	add.w	r4, sl, #4294967295
 1203b42:	d109      	bne.n	1203b58 <_dtoa_r+0x688>
 1203b44:	45a0      	cmp	r8, r4
 1203b46:	f000 8353 	beq.w	12041f0 <_dtoa_r+0xd20>
 1203b4a:	f814 2c01 	ldrb.w	r2, [r4, #-1]
 1203b4e:	46a2      	mov	sl, r4
 1203b50:	2a39      	cmp	r2, #57	; 0x39
 1203b52:	f104 34ff 	add.w	r4, r4, #4294967295
 1203b56:	d0ee      	beq.n	1203b36 <_dtoa_r+0x666>
 1203b58:	1c50      	adds	r0, r2, #1
 1203b5a:	7020      	strb	r0, [r4, #0]
 1203b5c:	4648      	mov	r0, r9
 1203b5e:	4639      	mov	r1, r7
 1203b60:	f001 f91a 	bl	1204d98 <_Bfree>
 1203b64:	9a0c      	ldr	r2, [sp, #48]	; 0x30
 1203b66:	2a00      	cmp	r2, #0
 1203b68:	f43f aec9 	beq.w	12038fe <_dtoa_r+0x42e>
 1203b6c:	2d00      	cmp	r5, #0
 1203b6e:	f000 82de 	beq.w	120412e <_dtoa_r+0xc5e>
 1203b72:	4295      	cmp	r5, r2
 1203b74:	f000 82db 	beq.w	120412e <_dtoa_r+0xc5e>
 1203b78:	4648      	mov	r0, r9
 1203b7a:	4629      	mov	r1, r5
 1203b7c:	f001 f90c 	bl	1204d98 <_Bfree>
 1203b80:	e2d5      	b.n	120412e <_dtoa_r+0xc5e>
 1203b82:	2301      	movs	r3, #1
 1203b84:	9310      	str	r3, [sp, #64]	; 0x40
 1203b86:	e567      	b.n	1203658 <_dtoa_r+0x188>
 1203b88:	9807      	ldr	r0, [sp, #28]
 1203b8a:	f7fc fd27 	bl	12005dc <__aeabi_i2d>
 1203b8e:	4622      	mov	r2, r4
 1203b90:	462b      	mov	r3, r5
 1203b92:	f7fc fff1 	bl	1200b78 <__aeabi_dcmpeq>
 1203b96:	2800      	cmp	r0, #0
 1203b98:	f47f ad4a 	bne.w	1203630 <_dtoa_r+0x160>
 1203b9c:	9807      	ldr	r0, [sp, #28]
 1203b9e:	1e41      	subs	r1, r0, #1
 1203ba0:	9107      	str	r1, [sp, #28]
 1203ba2:	e545      	b.n	1203630 <_dtoa_r+0x160>
 1203ba4:	9a0a      	ldr	r2, [sp, #40]	; 0x28
 1203ba6:	9907      	ldr	r1, [sp, #28]
 1203ba8:	2500      	movs	r5, #0
 1203baa:	1a54      	subs	r4, r2, r1
 1203bac:	424b      	negs	r3, r1
 1203bae:	940a      	str	r4, [sp, #40]	; 0x28
 1203bb0:	930e      	str	r3, [sp, #56]	; 0x38
 1203bb2:	950f      	str	r5, [sp, #60]	; 0x3c
 1203bb4:	e561      	b.n	120367a <_dtoa_r+0x1aa>
 1203bb6:	4276      	negs	r6, r6
 1203bb8:	2300      	movs	r3, #0
 1203bba:	960a      	str	r6, [sp, #40]	; 0x28
 1203bbc:	9308      	str	r3, [sp, #32]
 1203bbe:	e552      	b.n	1203666 <_dtoa_r+0x196>
 1203bc0:	9b0d      	ldr	r3, [sp, #52]	; 0x34
 1203bc2:	9d0e      	ldr	r5, [sp, #56]	; 0x38
 1203bc4:	9c0a      	ldr	r4, [sp, #40]	; 0x28
 1203bc6:	930c      	str	r3, [sp, #48]	; 0x30
 1203bc8:	e6f9      	b.n	12039be <_dtoa_r+0x4ee>
 1203bca:	231c      	movs	r3, #28
 1203bcc:	990a      	ldr	r1, [sp, #40]	; 0x28
 1203bce:	9a08      	ldr	r2, [sp, #32]
 1203bd0:	18c8      	adds	r0, r1, r3
 1203bd2:	18e4      	adds	r4, r4, r3
 1203bd4:	18d3      	adds	r3, r2, r3
 1203bd6:	900a      	str	r0, [sp, #40]	; 0x28
 1203bd8:	9308      	str	r3, [sp, #32]
 1203bda:	e747      	b.n	1203a6c <_dtoa_r+0x59c>
 1203bdc:	f64f 33ee 	movw	r3, #64494	; 0xfbee
 1203be0:	f6cf 73ff 	movt	r3, #65535	; 0xffff
 1203be4:	1b9c      	subs	r4, r3, r6
 1203be6:	fa0a f004 	lsl.w	r0, sl, r4
 1203bea:	e4ec      	b.n	12035c6 <_dtoa_r+0xf6>
 1203bec:	9010      	str	r0, [sp, #64]	; 0x40
 1203bee:	e533      	b.n	1203658 <_dtoa_r+0x188>
 1203bf0:	2c00      	cmp	r4, #0
 1203bf2:	dd05      	ble.n	1203c00 <_dtoa_r+0x730>
 1203bf4:	4648      	mov	r0, r9
 1203bf6:	990c      	ldr	r1, [sp, #48]	; 0x30
 1203bf8:	4622      	mov	r2, r4
 1203bfa:	f001 fb5d 	bl	12052b8 <__lshift>
 1203bfe:	900c      	str	r0, [sp, #48]	; 0x30
 1203c00:	2d00      	cmp	r5, #0
 1203c02:	f040 83f0 	bne.w	12043e6 <_dtoa_r+0xf16>
 1203c06:	9e0c      	ldr	r6, [sp, #48]	; 0x30
 1203c08:	9809      	ldr	r0, [sp, #36]	; 0x24
 1203c0a:	f108 0401 	add.w	r4, r8, #1
 1203c0e:	eb08 0100 	add.w	r1, r8, r0
 1203c12:	9d0c      	ldr	r5, [sp, #48]	; 0x30
 1203c14:	f00a 0201 	and.w	r2, sl, #1
 1203c18:	f8cd 8030 	str.w	r8, [sp, #48]	; 0x30
 1203c1c:	f8dd 802c 	ldr.w	r8, [sp, #44]	; 0x2c
 1203c20:	9109      	str	r1, [sp, #36]	; 0x24
 1203c22:	920a      	str	r2, [sp, #40]	; 0x28
 1203c24:	4639      	mov	r1, r7
 1203c26:	4640      	mov	r0, r8
 1203c28:	f7ff fada 	bl	12031e0 <quorem>
 1203c2c:	4629      	mov	r1, r5
 1203c2e:	4682      	mov	sl, r0
 1203c30:	4640      	mov	r0, r8
 1203c32:	f001 fbf7 	bl	1205424 <__mcmp>
 1203c36:	4632      	mov	r2, r6
 1203c38:	9006      	str	r0, [sp, #24]
 1203c3a:	4639      	mov	r1, r7
 1203c3c:	4648      	mov	r0, r9
 1203c3e:	f001 fc1f 	bl	1205480 <__mdiff>
 1203c42:	68c3      	ldr	r3, [r0, #12]
 1203c44:	4602      	mov	r2, r0
 1203c46:	1e60      	subs	r0, r4, #1
 1203c48:	9008      	str	r0, [sp, #32]
 1203c4a:	f10a 0b30 	add.w	fp, sl, #48	; 0x30
 1203c4e:	2b00      	cmp	r3, #0
 1203c50:	f000 8282 	beq.w	1204158 <_dtoa_r+0xc88>
 1203c54:	4648      	mov	r0, r9
 1203c56:	4611      	mov	r1, r2
 1203c58:	f001 f89e 	bl	1204d98 <_Bfree>
 1203c5c:	2301      	movs	r3, #1
 1203c5e:	9906      	ldr	r1, [sp, #24]
 1203c60:	2900      	cmp	r1, #0
 1203c62:	f2c0 8366 	blt.w	1204332 <_dtoa_r+0xe62>
 1203c66:	d105      	bne.n	1203c74 <_dtoa_r+0x7a4>
 1203c68:	9a28      	ldr	r2, [sp, #160]	; 0xa0
 1203c6a:	b91a      	cbnz	r2, 1203c74 <_dtoa_r+0x7a4>
 1203c6c:	980a      	ldr	r0, [sp, #40]	; 0x28
 1203c6e:	2800      	cmp	r0, #0
 1203c70:	f000 835f 	beq.w	1204332 <_dtoa_r+0xe62>
 1203c74:	2b00      	cmp	r3, #0
 1203c76:	f300 83ce 	bgt.w	1204416 <_dtoa_r+0xf46>
 1203c7a:	9b09      	ldr	r3, [sp, #36]	; 0x24
 1203c7c:	f804 bc01 	strb.w	fp, [r4, #-1]
 1203c80:	429c      	cmp	r4, r3
 1203c82:	46a2      	mov	sl, r4
 1203c84:	f000 83d7 	beq.w	1204436 <_dtoa_r+0xf66>
 1203c88:	4641      	mov	r1, r8
 1203c8a:	220a      	movs	r2, #10
 1203c8c:	2300      	movs	r3, #0
 1203c8e:	4648      	mov	r0, r9
 1203c90:	f001 f88c 	bl	1204dac <__multadd>
 1203c94:	42b5      	cmp	r5, r6
 1203c96:	4680      	mov	r8, r0
 1203c98:	f000 8288 	beq.w	12041ac <_dtoa_r+0xcdc>
 1203c9c:	4629      	mov	r1, r5
 1203c9e:	220a      	movs	r2, #10
 1203ca0:	2300      	movs	r3, #0
 1203ca2:	4648      	mov	r0, r9
 1203ca4:	f001 f882 	bl	1204dac <__multadd>
 1203ca8:	4631      	mov	r1, r6
 1203caa:	4605      	mov	r5, r0
 1203cac:	220a      	movs	r2, #10
 1203cae:	4648      	mov	r0, r9
 1203cb0:	2300      	movs	r3, #0
 1203cb2:	f001 f87b 	bl	1204dac <__multadd>
 1203cb6:	3401      	adds	r4, #1
 1203cb8:	4606      	mov	r6, r0
 1203cba:	e7b3      	b.n	1203c24 <_dtoa_r+0x754>
 1203cbc:	f1ba 0f00 	cmp.w	sl, #0
 1203cc0:	f47f aebb 	bne.w	1203a3a <_dtoa_r+0x56a>
 1203cc4:	f3cb 0313 	ubfx	r3, fp, #0, #20
 1203cc8:	4658      	mov	r0, fp
 1203cca:	2b00      	cmp	r3, #0
 1203ccc:	f040 8476 	bne.w	12045bc <_dtoa_r+0x10ec>
 1203cd0:	2500      	movs	r5, #0
 1203cd2:	f6c7 75f0 	movt	r5, #32752	; 0x7ff0
 1203cd6:	4005      	ands	r5, r0
 1203cd8:	2d00      	cmp	r5, #0
 1203cda:	f43f aeaf 	beq.w	1203a3c <_dtoa_r+0x56c>
 1203cde:	990a      	ldr	r1, [sp, #40]	; 0x28
 1203ce0:	9808      	ldr	r0, [sp, #32]
 1203ce2:	1c4a      	adds	r2, r1, #1
 1203ce4:	1c43      	adds	r3, r0, #1
 1203ce6:	920a      	str	r2, [sp, #40]	; 0x28
 1203ce8:	9308      	str	r3, [sp, #32]
 1203cea:	2501      	movs	r5, #1
 1203cec:	e6a6      	b.n	1203a3c <_dtoa_r+0x56c>
 1203cee:	2001      	movs	r0, #1
 1203cf0:	900d      	str	r0, [sp, #52]	; 0x34
 1203cf2:	9a29      	ldr	r2, [sp, #164]	; 0xa4
 1203cf4:	2a00      	cmp	r2, #0
 1203cf6:	f340 8317 	ble.w	1204328 <_dtoa_r+0xe58>
 1203cfa:	4614      	mov	r4, r2
 1203cfc:	9211      	str	r2, [sp, #68]	; 0x44
 1203cfe:	9209      	str	r2, [sp, #36]	; 0x24
 1203d00:	2100      	movs	r1, #0
 1203d02:	2c17      	cmp	r4, #23
 1203d04:	f8c9 1044 	str.w	r1, [r9, #68]	; 0x44
 1203d08:	d90a      	bls.n	1203d20 <_dtoa_r+0x850>
 1203d0a:	2201      	movs	r2, #1
 1203d0c:	2304      	movs	r3, #4
 1203d0e:	005b      	lsls	r3, r3, #1
 1203d10:	f103 0014 	add.w	r0, r3, #20
 1203d14:	4611      	mov	r1, r2
 1203d16:	3201      	adds	r2, #1
 1203d18:	42a0      	cmp	r0, r4
 1203d1a:	d9f8      	bls.n	1203d0e <_dtoa_r+0x83e>
 1203d1c:	f8c9 1044 	str.w	r1, [r9, #68]	; 0x44
 1203d20:	4648      	mov	r0, r9
 1203d22:	f001 f813 	bl	1204d4c <_Balloc>
 1203d26:	2c0e      	cmp	r4, #14
 1203d28:	4680      	mov	r8, r0
 1203d2a:	f8c9 0040 	str.w	r0, [r9, #64]	; 0x40
 1203d2e:	f63f ace6 	bhi.w	12036fe <_dtoa_r+0x22e>
 1203d32:	2d00      	cmp	r5, #0
 1203d34:	f43f ace3 	beq.w	12036fe <_dtoa_r+0x22e>
 1203d38:	9f07      	ldr	r7, [sp, #28]
 1203d3a:	e9cd ab14 	strd	sl, fp, [sp, #80]	; 0x50
 1203d3e:	2f00      	cmp	r7, #0
 1203d40:	f340 832e 	ble.w	12043a0 <_dtoa_r+0xed0>
 1203d44:	4899      	ldr	r0, [pc, #612]	; (1203fac <_dtoa_r+0xadc>)
 1203d46:	f007 060f 	and.w	r6, r7, #15
 1203d4a:	eb00 01c6 	add.w	r1, r0, r6, lsl #3
 1203d4e:	113e      	asrs	r6, r7, #4
 1203d50:	e9d1 4500 	ldrd	r4, r5, [r1]
 1203d54:	06f1      	lsls	r1, r6, #27
 1203d56:	f140 82e1 	bpl.w	120431c <_dtoa_r+0xe4c>
 1203d5a:	4f95      	ldr	r7, [pc, #596]	; (1203fb0 <_dtoa_r+0xae0>)
 1203d5c:	4650      	mov	r0, sl
 1203d5e:	e9d7 2308 	ldrd	r2, r3, [r7, #32]
 1203d62:	4659      	mov	r1, fp
 1203d64:	f7fc fdca 	bl	12008fc <__aeabi_ddiv>
 1203d68:	e9cd 0112 	strd	r0, r1, [sp, #72]	; 0x48
 1203d6c:	f006 060f 	and.w	r6, r6, #15
 1203d70:	2703      	movs	r7, #3
 1203d72:	b186      	cbz	r6, 1203d96 <_dtoa_r+0x8c6>
 1203d74:	f8df a238 	ldr.w	sl, [pc, #568]	; 1203fb0 <_dtoa_r+0xae0>
 1203d78:	4620      	mov	r0, r4
 1203d7a:	4629      	mov	r1, r5
 1203d7c:	07f2      	lsls	r2, r6, #31
 1203d7e:	d504      	bpl.n	1203d8a <_dtoa_r+0x8ba>
 1203d80:	e9da 2300 	ldrd	r2, r3, [sl]
 1203d84:	f7fc fc90 	bl	12006a8 <__aeabi_dmul>
 1203d88:	3701      	adds	r7, #1
 1203d8a:	1076      	asrs	r6, r6, #1
 1203d8c:	f10a 0a08 	add.w	sl, sl, #8
 1203d90:	d1f4      	bne.n	1203d7c <_dtoa_r+0x8ac>
 1203d92:	4604      	mov	r4, r0
 1203d94:	460d      	mov	r5, r1
 1203d96:	e9dd 0112 	ldrd	r0, r1, [sp, #72]	; 0x48
 1203d9a:	4622      	mov	r2, r4
 1203d9c:	462b      	mov	r3, r5
 1203d9e:	f7fc fdad 	bl	12008fc <__aeabi_ddiv>
 1203da2:	4682      	mov	sl, r0
 1203da4:	468b      	mov	fp, r1
 1203da6:	9b10      	ldr	r3, [sp, #64]	; 0x40
 1203da8:	b153      	cbz	r3, 1203dc0 <_dtoa_r+0x8f0>
 1203daa:	2300      	movs	r3, #0
 1203dac:	4650      	mov	r0, sl
 1203dae:	4659      	mov	r1, fp
 1203db0:	2200      	movs	r2, #0
 1203db2:	f6c3 73f0 	movt	r3, #16368	; 0x3ff0
 1203db6:	f7fc fee9 	bl	1200b8c <__aeabi_dcmplt>
 1203dba:	2800      	cmp	r0, #0
 1203dbc:	f040 840d 	bne.w	12045da <_dtoa_r+0x110a>
 1203dc0:	4638      	mov	r0, r7
 1203dc2:	f7fc fc0b 	bl	12005dc <__aeabi_i2d>
 1203dc6:	4652      	mov	r2, sl
 1203dc8:	465b      	mov	r3, fp
 1203dca:	f7fc fc6d 	bl	12006a8 <__aeabi_dmul>
 1203dce:	2300      	movs	r3, #0
 1203dd0:	2200      	movs	r2, #0
 1203dd2:	f2c4 031c 	movt	r3, #16412	; 0x401c
 1203dd6:	f7fc fab5 	bl	1200344 <__adddf3>
 1203dda:	4604      	mov	r4, r0
 1203ddc:	9809      	ldr	r0, [sp, #36]	; 0x24
 1203dde:	f1a1 7550 	sub.w	r5, r1, #54525952	; 0x3400000
 1203de2:	2800      	cmp	r0, #0
 1203de4:	f000 825b 	beq.w	120429e <_dtoa_r+0xdce>
 1203de8:	9e07      	ldr	r6, [sp, #28]
 1203dea:	961a      	str	r6, [sp, #104]	; 0x68
 1203dec:	9e09      	ldr	r6, [sp, #36]	; 0x24
 1203dee:	990d      	ldr	r1, [sp, #52]	; 0x34
 1203df0:	2900      	cmp	r1, #0
 1203df2:	f000 832a 	beq.w	120444a <_dtoa_r+0xf7a>
 1203df6:	4f6d      	ldr	r7, [pc, #436]	; (1203fac <_dtoa_r+0xadc>)
 1203df8:	2100      	movs	r1, #0
 1203dfa:	eb07 02c6 	add.w	r2, r7, r6, lsl #3
 1203dfe:	f1a2 0308 	sub.w	r3, r2, #8
 1203e02:	e9d3 2300 	ldrd	r2, r3, [r3]
 1203e06:	2000      	movs	r0, #0
 1203e08:	f6c3 71e0 	movt	r1, #16352	; 0x3fe0
 1203e0c:	f7fc fd76 	bl	12008fc <__aeabi_ddiv>
 1203e10:	4622      	mov	r2, r4
 1203e12:	462b      	mov	r3, r5
 1203e14:	f7fc fa94 	bl	1200340 <__aeabi_dsub>
 1203e18:	e9cd 0116 	strd	r0, r1, [sp, #88]	; 0x58
 1203e1c:	4650      	mov	r0, sl
 1203e1e:	4659      	mov	r1, fp
 1203e20:	f7fc fedc 	bl	1200bdc <__aeabi_d2iz>
 1203e24:	4604      	mov	r4, r0
 1203e26:	f7fc fbd9 	bl	12005dc <__aeabi_i2d>
 1203e2a:	4602      	mov	r2, r0
 1203e2c:	460b      	mov	r3, r1
 1203e2e:	4650      	mov	r0, sl
 1203e30:	4659      	mov	r1, fp
 1203e32:	f7fc fa85 	bl	1200340 <__aeabi_dsub>
 1203e36:	3430      	adds	r4, #48	; 0x30
 1203e38:	e9cd 0112 	strd	r0, r1, [sp, #72]	; 0x48
 1203e3c:	e9dd 2312 	ldrd	r2, r3, [sp, #72]	; 0x48
 1203e40:	e9dd 0116 	ldrd	r0, r1, [sp, #88]	; 0x58
 1203e44:	b2e7      	uxtb	r7, r4
 1203e46:	46c2      	mov	sl, r8
 1203e48:	f80a 7b01 	strb.w	r7, [sl], #1
 1203e4c:	f7fc febc 	bl	1200bc8 <__aeabi_dcmpgt>
 1203e50:	2800      	cmp	r0, #0
 1203e52:	f040 8403 	bne.w	120465c <_dtoa_r+0x118c>
 1203e56:	2100      	movs	r1, #0
 1203e58:	e9dd 2312 	ldrd	r2, r3, [sp, #72]	; 0x48
 1203e5c:	2000      	movs	r0, #0
 1203e5e:	f6c3 71f0 	movt	r1, #16368	; 0x3ff0
 1203e62:	f7fc fa6d 	bl	1200340 <__aeabi_dsub>
 1203e66:	4602      	mov	r2, r0
 1203e68:	460b      	mov	r3, r1
 1203e6a:	e9dd 0116 	ldrd	r0, r1, [sp, #88]	; 0x58
 1203e6e:	f7fc feab 	bl	1200bc8 <__aeabi_dcmpgt>
 1203e72:	2800      	cmp	r0, #0
 1203e74:	f040 841b 	bne.w	12046ae <_dtoa_r+0x11de>
 1203e78:	2e01      	cmp	r6, #1
 1203e7a:	f340 828d 	ble.w	1204398 <_dtoa_r+0xec8>
 1203e7e:	ea6f 050a 	mvn.w	r5, sl
 1203e82:	4446      	add	r6, r8
 1203e84:	19af      	adds	r7, r5, r6
 1203e86:	2300      	movs	r3, #0
 1203e88:	f007 0401 	and.w	r4, r7, #1
 1203e8c:	2200      	movs	r2, #0
 1203e8e:	f2c4 0324 	movt	r3, #16420	; 0x4024
 1203e92:	e9dd 0116 	ldrd	r0, r1, [sp, #88]	; 0x58
 1203e96:	9618      	str	r6, [sp, #96]	; 0x60
 1203e98:	9416      	str	r4, [sp, #88]	; 0x58
 1203e9a:	f7fc fc05 	bl	12006a8 <__aeabi_dmul>
 1203e9e:	2300      	movs	r3, #0
 1203ea0:	2200      	movs	r2, #0
 1203ea2:	f2c4 0324 	movt	r3, #16420	; 0x4024
 1203ea6:	4604      	mov	r4, r0
 1203ea8:	460d      	mov	r5, r1
 1203eaa:	e9dd 0112 	ldrd	r0, r1, [sp, #72]	; 0x48
 1203eae:	f7fc fbfb 	bl	12006a8 <__aeabi_dmul>
 1203eb2:	460f      	mov	r7, r1
 1203eb4:	4606      	mov	r6, r0
 1203eb6:	f7fc fe91 	bl	1200bdc <__aeabi_d2iz>
 1203eba:	4683      	mov	fp, r0
 1203ebc:	f7fc fb8e 	bl	12005dc <__aeabi_i2d>
 1203ec0:	4602      	mov	r2, r0
 1203ec2:	460b      	mov	r3, r1
 1203ec4:	4630      	mov	r0, r6
 1203ec6:	4639      	mov	r1, r7
 1203ec8:	f7fc fa3a 	bl	1200340 <__aeabi_dsub>
 1203ecc:	f10b 0330 	add.w	r3, fp, #48	; 0x30
 1203ed0:	b2df      	uxtb	r7, r3
 1203ed2:	46d3      	mov	fp, sl
 1203ed4:	f80b 7b01 	strb.w	r7, [fp], #1
 1203ed8:	4622      	mov	r2, r4
 1203eda:	462b      	mov	r3, r5
 1203edc:	e9cd 0112 	strd	r0, r1, [sp, #72]	; 0x48
 1203ee0:	46da      	mov	sl, fp
 1203ee2:	f7fc fe53 	bl	1200b8c <__aeabi_dcmplt>
 1203ee6:	2800      	cmp	r0, #0
 1203ee8:	f040 80e6 	bne.w	12040b8 <_dtoa_r+0xbe8>
 1203eec:	2100      	movs	r1, #0
 1203eee:	e9dd 2312 	ldrd	r2, r3, [sp, #72]	; 0x48
 1203ef2:	2000      	movs	r0, #0
 1203ef4:	f6c3 71f0 	movt	r1, #16368	; 0x3ff0
 1203ef8:	f7fc fa22 	bl	1200340 <__aeabi_dsub>
 1203efc:	4622      	mov	r2, r4
 1203efe:	462b      	mov	r3, r5
 1203f00:	f7fc fe44 	bl	1200b8c <__aeabi_dcmplt>
 1203f04:	2800      	cmp	r0, #0
 1203f06:	f040 83b2 	bne.w	120466e <_dtoa_r+0x119e>
 1203f0a:	9918      	ldr	r1, [sp, #96]	; 0x60
 1203f0c:	458b      	cmp	fp, r1
 1203f0e:	f000 8243 	beq.w	1204398 <_dtoa_r+0xec8>
 1203f12:	9816      	ldr	r0, [sp, #88]	; 0x58
 1203f14:	2800      	cmp	r0, #0
 1203f16:	d040      	beq.n	1203f9a <_dtoa_r+0xaca>
 1203f18:	2300      	movs	r3, #0
 1203f1a:	2200      	movs	r2, #0
 1203f1c:	f2c4 0324 	movt	r3, #16420	; 0x4024
 1203f20:	4620      	mov	r0, r4
 1203f22:	4629      	mov	r1, r5
 1203f24:	f7fc fbc0 	bl	12006a8 <__aeabi_dmul>
 1203f28:	2300      	movs	r3, #0
 1203f2a:	2200      	movs	r2, #0
 1203f2c:	f2c4 0324 	movt	r3, #16420	; 0x4024
 1203f30:	4604      	mov	r4, r0
 1203f32:	460d      	mov	r5, r1
 1203f34:	e9dd 0112 	ldrd	r0, r1, [sp, #72]	; 0x48
 1203f38:	f7fc fbb6 	bl	12006a8 <__aeabi_dmul>
 1203f3c:	460f      	mov	r7, r1
 1203f3e:	4606      	mov	r6, r0
 1203f40:	f7fc fe4c 	bl	1200bdc <__aeabi_d2iz>
 1203f44:	4682      	mov	sl, r0
 1203f46:	f7fc fb49 	bl	12005dc <__aeabi_i2d>
 1203f4a:	4602      	mov	r2, r0
 1203f4c:	460b      	mov	r3, r1
 1203f4e:	4630      	mov	r0, r6
 1203f50:	4639      	mov	r1, r7
 1203f52:	f7fc f9f5 	bl	1200340 <__aeabi_dsub>
 1203f56:	f10a 0230 	add.w	r2, sl, #48	; 0x30
 1203f5a:	b2d7      	uxtb	r7, r2
 1203f5c:	f80b 7b01 	strb.w	r7, [fp], #1
 1203f60:	4622      	mov	r2, r4
 1203f62:	462b      	mov	r3, r5
 1203f64:	e9cd 0112 	strd	r0, r1, [sp, #72]	; 0x48
 1203f68:	46da      	mov	sl, fp
 1203f6a:	f7fc fe0f 	bl	1200b8c <__aeabi_dcmplt>
 1203f6e:	2800      	cmp	r0, #0
 1203f70:	f040 80a2 	bne.w	12040b8 <_dtoa_r+0xbe8>
 1203f74:	2100      	movs	r1, #0
 1203f76:	e9dd 2312 	ldrd	r2, r3, [sp, #72]	; 0x48
 1203f7a:	2000      	movs	r0, #0
 1203f7c:	f6c3 71f0 	movt	r1, #16368	; 0x3ff0
 1203f80:	f7fc f9de 	bl	1200340 <__aeabi_dsub>
 1203f84:	4622      	mov	r2, r4
 1203f86:	462b      	mov	r3, r5
 1203f88:	f7fc fe00 	bl	1200b8c <__aeabi_dcmplt>
 1203f8c:	2800      	cmp	r0, #0
 1203f8e:	f040 836e 	bne.w	120466e <_dtoa_r+0x119e>
 1203f92:	9b18      	ldr	r3, [sp, #96]	; 0x60
 1203f94:	459b      	cmp	fp, r3
 1203f96:	f000 81ff 	beq.w	1204398 <_dtoa_r+0xec8>
 1203f9a:	f8cd 906c 	str.w	r9, [sp, #108]	; 0x6c
 1203f9e:	f8cd 8058 	str.w	r8, [sp, #88]	; 0x58
 1203fa2:	f8dd 9060 	ldr.w	r9, [sp, #96]	; 0x60
 1203fa6:	e9dd 6712 	ldrd	r6, r7, [sp, #72]	; 0x48
 1203faa:	e050      	b.n	120404e <_dtoa_r+0xb7e>
 1203fac:	01200248 	teqeq	r0, r8, asr #4
 1203fb0:	01200310 	teqeq	r0, r0, lsl r3
 1203fb4:	2100      	movs	r1, #0
 1203fb6:	2000      	movs	r0, #0
 1203fb8:	f6c3 71f0 	movt	r1, #16368	; 0x3ff0
 1203fbc:	f7fc f9c0 	bl	1200340 <__aeabi_dsub>
 1203fc0:	4622      	mov	r2, r4
 1203fc2:	462b      	mov	r3, r5
 1203fc4:	f7fc fde2 	bl	1200b8c <__aeabi_dcmplt>
 1203fc8:	2300      	movs	r3, #0
 1203fca:	2200      	movs	r2, #0
 1203fcc:	f2c4 0324 	movt	r3, #16420	; 0x4024
 1203fd0:	2800      	cmp	r0, #0
 1203fd2:	f040 8347 	bne.w	1204664 <_dtoa_r+0x1194>
 1203fd6:	4620      	mov	r0, r4
 1203fd8:	4629      	mov	r1, r5
 1203fda:	f7fc fb65 	bl	12006a8 <__aeabi_dmul>
 1203fde:	2300      	movs	r3, #0
 1203fe0:	2200      	movs	r2, #0
 1203fe2:	f2c4 0324 	movt	r3, #16420	; 0x4024
 1203fe6:	4604      	mov	r4, r0
 1203fe8:	460d      	mov	r5, r1
 1203fea:	4630      	mov	r0, r6
 1203fec:	4639      	mov	r1, r7
 1203fee:	f7fc fb5b 	bl	12006a8 <__aeabi_dmul>
 1203ff2:	460f      	mov	r7, r1
 1203ff4:	4606      	mov	r6, r0
 1203ff6:	f7fc fdf1 	bl	1200bdc <__aeabi_d2iz>
 1203ffa:	4682      	mov	sl, r0
 1203ffc:	f7fc faee 	bl	12005dc <__aeabi_i2d>
 1204000:	4602      	mov	r2, r0
 1204002:	460b      	mov	r3, r1
 1204004:	4630      	mov	r0, r6
 1204006:	4639      	mov	r1, r7
 1204008:	f7fc f99a 	bl	1200340 <__aeabi_dsub>
 120400c:	f10a 0330 	add.w	r3, sl, #48	; 0x30
 1204010:	fa5f f883 	uxtb.w	r8, r3
 1204014:	f80b 8b01 	strb.w	r8, [fp], #1
 1204018:	4622      	mov	r2, r4
 120401a:	462b      	mov	r3, r5
 120401c:	4606      	mov	r6, r0
 120401e:	460f      	mov	r7, r1
 1204020:	f7fc fdb4 	bl	1200b8c <__aeabi_dcmplt>
 1204024:	46da      	mov	sl, fp
 1204026:	4632      	mov	r2, r6
 1204028:	463b      	mov	r3, r7
 120402a:	2800      	cmp	r0, #0
 120402c:	d140      	bne.n	12040b0 <_dtoa_r+0xbe0>
 120402e:	2100      	movs	r1, #0
 1204030:	2000      	movs	r0, #0
 1204032:	f6c3 71f0 	movt	r1, #16368	; 0x3ff0
 1204036:	f7fc f983 	bl	1200340 <__aeabi_dsub>
 120403a:	4622      	mov	r2, r4
 120403c:	462b      	mov	r3, r5
 120403e:	f7fc fda5 	bl	1200b8c <__aeabi_dcmplt>
 1204042:	2800      	cmp	r0, #0
 1204044:	f040 830e 	bne.w	1204664 <_dtoa_r+0x1194>
 1204048:	45cb      	cmp	fp, r9
 120404a:	f000 81a1 	beq.w	1204390 <_dtoa_r+0xec0>
 120404e:	2300      	movs	r3, #0
 1204050:	4620      	mov	r0, r4
 1204052:	4629      	mov	r1, r5
 1204054:	2200      	movs	r2, #0
 1204056:	f2c4 0324 	movt	r3, #16420	; 0x4024
 120405a:	f7fc fb25 	bl	12006a8 <__aeabi_dmul>
 120405e:	2300      	movs	r3, #0
 1204060:	2200      	movs	r2, #0
 1204062:	f2c4 0324 	movt	r3, #16420	; 0x4024
 1204066:	4604      	mov	r4, r0
 1204068:	460d      	mov	r5, r1
 120406a:	4630      	mov	r0, r6
 120406c:	4639      	mov	r1, r7
 120406e:	f7fc fb1b 	bl	12006a8 <__aeabi_dmul>
 1204072:	460f      	mov	r7, r1
 1204074:	4606      	mov	r6, r0
 1204076:	f7fc fdb1 	bl	1200bdc <__aeabi_d2iz>
 120407a:	4680      	mov	r8, r0
 120407c:	f7fc faae 	bl	12005dc <__aeabi_i2d>
 1204080:	4602      	mov	r2, r0
 1204082:	460b      	mov	r3, r1
 1204084:	4630      	mov	r0, r6
 1204086:	4639      	mov	r1, r7
 1204088:	f7fc f95a 	bl	1200340 <__aeabi_dsub>
 120408c:	f108 0230 	add.w	r2, r8, #48	; 0x30
 1204090:	46da      	mov	sl, fp
 1204092:	fa5f f882 	uxtb.w	r8, r2
 1204096:	f80a 8b01 	strb.w	r8, [sl], #1
 120409a:	4622      	mov	r2, r4
 120409c:	462b      	mov	r3, r5
 120409e:	4606      	mov	r6, r0
 12040a0:	460f      	mov	r7, r1
 12040a2:	f7fc fd73 	bl	1200b8c <__aeabi_dcmplt>
 12040a6:	46d3      	mov	fp, sl
 12040a8:	4632      	mov	r2, r6
 12040aa:	463b      	mov	r3, r7
 12040ac:	2800      	cmp	r0, #0
 12040ae:	d081      	beq.n	1203fb4 <_dtoa_r+0xae4>
 12040b0:	f8dd 8058 	ldr.w	r8, [sp, #88]	; 0x58
 12040b4:	f8dd 906c 	ldr.w	r9, [sp, #108]	; 0x6c
 12040b8:	981a      	ldr	r0, [sp, #104]	; 0x68
 12040ba:	9007      	str	r0, [sp, #28]
 12040bc:	e41f      	b.n	12038fe <_dtoa_r+0x42e>
 12040be:	2400      	movs	r4, #0
 12040c0:	940d      	str	r4, [sp, #52]	; 0x34
 12040c2:	9829      	ldr	r0, [sp, #164]	; 0xa4
 12040c4:	9b07      	ldr	r3, [sp, #28]
 12040c6:	18c2      	adds	r2, r0, r3
 12040c8:	1c54      	adds	r4, r2, #1
 12040ca:	2c00      	cmp	r4, #0
 12040cc:	9211      	str	r2, [sp, #68]	; 0x44
 12040ce:	9409      	str	r4, [sp, #36]	; 0x24
 12040d0:	f73f ae16 	bgt.w	1203d00 <_dtoa_r+0x830>
 12040d4:	2100      	movs	r1, #0
 12040d6:	f8c9 1044 	str.w	r1, [r9, #68]	; 0x44
 12040da:	e621      	b.n	1203d20 <_dtoa_r+0x850>
 12040dc:	2101      	movs	r1, #1
 12040de:	910d      	str	r1, [sp, #52]	; 0x34
 12040e0:	e7ef      	b.n	12040c2 <_dtoa_r+0xbf2>
 12040e2:	2300      	movs	r3, #0
 12040e4:	930d      	str	r3, [sp, #52]	; 0x34
 12040e6:	e604      	b.n	1203cf2 <_dtoa_r+0x822>
 12040e8:	9909      	ldr	r1, [sp, #36]	; 0x24
 12040ea:	2900      	cmp	r1, #0
 12040ec:	f73f ab1a 	bgt.w	1203724 <_dtoa_r+0x254>
 12040f0:	f040 82cd 	bne.w	120468e <_dtoa_r+0x11be>
 12040f4:	2300      	movs	r3, #0
 12040f6:	2200      	movs	r2, #0
 12040f8:	f2c4 0314 	movt	r3, #16404	; 0x4014
 12040fc:	e9dd 0104 	ldrd	r0, r1, [sp, #16]
 1204100:	f7fc fad2 	bl	12006a8 <__aeabi_dmul>
 1204104:	4652      	mov	r2, sl
 1204106:	465b      	mov	r3, fp
 1204108:	f7fc fd54 	bl	1200bb4 <__aeabi_dcmpge>
 120410c:	9f09      	ldr	r7, [sp, #36]	; 0x24
 120410e:	970c      	str	r7, [sp, #48]	; 0x30
 1204110:	2800      	cmp	r0, #0
 1204112:	f000 80aa 	beq.w	120426a <_dtoa_r+0xd9a>
 1204116:	9d29      	ldr	r5, [sp, #164]	; 0xa4
 1204118:	46c2      	mov	sl, r8
 120411a:	43e9      	mvns	r1, r5
 120411c:	9107      	str	r1, [sp, #28]
 120411e:	4648      	mov	r0, r9
 1204120:	4639      	mov	r1, r7
 1204122:	f000 fe39 	bl	1204d98 <_Bfree>
 1204126:	9a0c      	ldr	r2, [sp, #48]	; 0x30
 1204128:	2a00      	cmp	r2, #0
 120412a:	f43f abe8 	beq.w	12038fe <_dtoa_r+0x42e>
 120412e:	4648      	mov	r0, r9
 1204130:	990c      	ldr	r1, [sp, #48]	; 0x30
 1204132:	f000 fe31 	bl	1204d98 <_Bfree>
 1204136:	f7ff bbe2 	b.w	12038fe <_dtoa_r+0x42e>
 120413a:	4648      	mov	r0, r9
 120413c:	990b      	ldr	r1, [sp, #44]	; 0x2c
 120413e:	f001 f871 	bl	1205224 <__pow5mult>
 1204142:	900b      	str	r0, [sp, #44]	; 0x2c
 1204144:	e467      	b.n	1203a16 <_dtoa_r+0x546>
 1204146:	9a0c      	ldr	r2, [sp, #48]	; 0x30
 1204148:	2a00      	cmp	r2, #0
 120414a:	f000 823a 	beq.w	12045c2 <_dtoa_r+0x10f2>
 120414e:	f200 4733 	addw	r7, r0, #1075	; 0x433
 1204152:	9d0e      	ldr	r5, [sp, #56]	; 0x38
 1204154:	9c0a      	ldr	r4, [sp, #40]	; 0x28
 1204156:	e427      	b.n	12039a8 <_dtoa_r+0x4d8>
 1204158:	4611      	mov	r1, r2
 120415a:	4640      	mov	r0, r8
 120415c:	9203      	str	r2, [sp, #12]
 120415e:	f001 f961 	bl	1205424 <__mcmp>
 1204162:	9903      	ldr	r1, [sp, #12]
 1204164:	4603      	mov	r3, r0
 1204166:	4648      	mov	r0, r9
 1204168:	9303      	str	r3, [sp, #12]
 120416a:	f000 fe15 	bl	1204d98 <_Bfree>
 120416e:	9b03      	ldr	r3, [sp, #12]
 1204170:	2b00      	cmp	r3, #0
 1204172:	f47f ad74 	bne.w	1203c5e <_dtoa_r+0x78e>
 1204176:	9a28      	ldr	r2, [sp, #160]	; 0xa0
 1204178:	2a00      	cmp	r2, #0
 120417a:	f47f ad70 	bne.w	1203c5e <_dtoa_r+0x78e>
 120417e:	980a      	ldr	r0, [sp, #40]	; 0x28
 1204180:	2800      	cmp	r0, #0
